

Microchip MPLAB XC8 Assembler V2.20 build 20200408173844 
                                                                                               Tue Jun 15 11:03:46 2021

Microchip MPLAB XC8 C Compiler v2.20 (Free license) build 20200408173844 Og1 
     1                           	processor	16F1825
     2                           	pagewidth 120
     3                           	opt	flic
     4                           	psect	nvBANK0,global,class=BANK0,space=1,delta=1,noexec
     5                           	psect	cinit,global,class=CODE,merge=1,delta=2
     6                           	psect	bssCOMMON,global,class=COMMON,space=1,delta=1,noexec
     7                           	psect	bssBANK0,global,class=BANK0,space=1,delta=1,noexec
     8                           	psect	clrtext,global,class=CODE,delta=2
     9                           	psect	cstackCOMMON,global,class=COMMON,space=1,delta=1,noexec
    10                           	psect	cstackBANK0,global,class=BANK0,space=1,delta=1,noexec
    11                           	psect	maintext,global,class=CODE,merge=1,split=1,delta=2
    12                           	psect	text1,local,class=CODE,merge=1,delta=2,group=1
    13                           	psect	text2,local,class=CODE,merge=1,delta=2,group=1
    14                           	psect	text3,local,class=CODE,merge=1,delta=2,group=1
    15                           	psect	text4,local,class=CODE,merge=1,delta=2
    16                           	psect	text5,local,class=CODE,merge=1,delta=2
    17                           	psect	text6,local,class=CODE,merge=1,delta=2
    18                           	psect	text7,local,class=CODE,merge=1,delta=2
    19                           	psect	intentry,global,class=CODE,delta=2
    20                           	psect	config,global,abs,ovrld,class=CONFIG,space=4,delta=2,noexec
    21                           	dabs	1,0x7E,2
    22  0000                     
    23                           ; Version 2.20
    24                           ; Generated 09/04/2020 GMT
    25                           ; 
    26                           ; Copyright © 2020, Microchip Technology Inc. and its subsidiaries ("Microchip")
    27                           ; All rights reserved.
    28                           ; 
    29                           ; This software is developed by Microchip Technology Inc. and its subsidiaries ("Microch
      +                          ip").
    30                           ; 
    31                           ; Redistribution and use in source and binary forms, with or without modification, are
    32                           ; permitted provided that the following conditions are met:
    33                           ; 
    34                           ;     1. Redistributions of source code must retain the above copyright notice, this lis
      +                          t of
    35                           ;        conditions and the following disclaimer.
    36                           ; 
    37                           ;     2. Redistributions in binary form must reproduce the above copyright notice, this 
      +                          list
    38                           ;        of conditions and the following disclaimer in the documentation and/or other
    39                           ;        materials provided with the distribution.
    40                           ; 
    41                           ;     3. Microchip's name may not be used to endorse or promote products derived from th
      +                          is
    42                           ;        software without specific prior written permission.
    43                           ; 
    44                           ; THIS SOFTWARE IS PROVIDED BY MICROCHIP "AS IS" AND ANY EXPRESS OR IMPLIED WARRANTIES,
    45                           ; INCLUDING, BUT NOT LIMITED TO, THE IMPLIED WARRANTIES OF MERCHANTABILITY AND FITNESS F
      +                          OR
    46                           ; PURPOSE ARE DISCLAIMED.  IN NO EVENT SHALL MICROCHIP BE LIABLE FOR ANY DIRECT, INDIREC
      +                          T,
    47                           ; INCIDENTAL, SPECIAL, EXEMPLARY, OR CONSEQUENTIAL DAMAGES (INCLUDING BUT NOT LIMITED TO
    48                           ; PROCUREMENT OF SUBSTITUTE GOODS OR SERVICES; LOSS OF USE, DATA OR PROFITS; OR BUSINESS
    49                           ; INTERRUPTION) HOWSOEVER CAUSED AND ON ANY THEORY OF LIABILITY, WHETHER IN CONTRACT, ST
      +                          RICT
    50                           ; LIABILITY, OR TORT (INCLUDING NEGLIGENCE OR OTHERWISE) ARISING IN ANY WAY OUT OF THE U
      +                          SE OF
    51                           ; THIS SOFTWARE, EVEN IF ADVISED OF THE POSSIBILITY OF SUCH DAMAGE.
    52                           ; 
    53                           ; 
    54                           ; Code-generator required, PIC16F1825 Definitions
    55                           ; 
    56                           ; SFR Addresses
    57  0000                     	;# 
    58  0001                     	;# 
    59  0002                     	;# 
    60  0003                     	;# 
    61  0004                     	;# 
    62  0005                     	;# 
    63  0006                     	;# 
    64  0007                     	;# 
    65  0008                     	;# 
    66  0009                     	;# 
    67  000A                     	;# 
    68  000B                     	;# 
    69  000C                     	;# 
    70  000E                     	;# 
    71  0011                     	;# 
    72  0012                     	;# 
    73  0013                     	;# 
    74  0015                     	;# 
    75  0016                     	;# 
    76  0016                     	;# 
    77  0017                     	;# 
    78  0018                     	;# 
    79  0019                     	;# 
    80  001A                     	;# 
    81  001B                     	;# 
    82  001C                     	;# 
    83  001E                     	;# 
    84  001F                     	;# 
    85  008C                     	;# 
    86  008E                     	;# 
    87  0091                     	;# 
    88  0092                     	;# 
    89  0093                     	;# 
    90  0095                     	;# 
    91  0096                     	;# 
    92  0097                     	;# 
    93  0098                     	;# 
    94  0099                     	;# 
    95  009A                     	;# 
    96  009B                     	;# 
    97  009B                     	;# 
    98  009C                     	;# 
    99  009D                     	;# 
   100  009E                     	;# 
   101  010C                     	;# 
   102  010E                     	;# 
   103  0111                     	;# 
   104  0112                     	;# 
   105  0113                     	;# 
   106  0114                     	;# 
   107  0115                     	;# 
   108  0116                     	;# 
   109  0117                     	;# 
   110  0118                     	;# 
   111  0119                     	;# 
   112  011A                     	;# 
   113  011B                     	;# 
   114  011D                     	;# 
   115  011E                     	;# 
   116  018C                     	;# 
   117  018E                     	;# 
   118  0191                     	;# 
   119  0191                     	;# 
   120  0192                     	;# 
   121  0193                     	;# 
   122  0193                     	;# 
   123  0193                     	;# 
   124  0194                     	;# 
   125  0195                     	;# 
   126  0196                     	;# 
   127  0199                     	;# 
   128  019A                     	;# 
   129  019B                     	;# 
   130  019B                     	;# 
   131  019C                     	;# 
   132  019D                     	;# 
   133  019E                     	;# 
   134  019F                     	;# 
   135  020C                     	;# 
   136  020E                     	;# 
   137  0211                     	;# 
   138  0211                     	;# 
   139  0212                     	;# 
   140  0212                     	;# 
   141  0213                     	;# 
   142  0213                     	;# 
   143  0214                     	;# 
   144  0214                     	;# 
   145  0215                     	;# 
   146  0215                     	;# 
   147  0215                     	;# 
   148  0216                     	;# 
   149  0216                     	;# 
   150  0217                     	;# 
   151  0217                     	;# 
   152  0291                     	;# 
   153  0291                     	;# 
   154  0292                     	;# 
   155  0293                     	;# 
   156  0294                     	;# 
   157  0295                     	;# 
   158  0295                     	;# 
   159  0296                     	;# 
   160  0298                     	;# 
   161  0298                     	;# 
   162  0299                     	;# 
   163  029A                     	;# 
   164  029B                     	;# 
   165  029C                     	;# 
   166  029D                     	;# 
   167  029E                     	;# 
   168  0311                     	;# 
   169  0311                     	;# 
   170  0312                     	;# 
   171  0313                     	;# 
   172  0318                     	;# 
   173  0318                     	;# 
   174  0319                     	;# 
   175  031A                     	;# 
   176  038C                     	;# 
   177  038E                     	;# 
   178  0391                     	;# 
   179  0392                     	;# 
   180  0393                     	;# 
   181  039A                     	;# 
   182  039C                     	;# 
   183  039D                     	;# 
   184  039E                     	;# 
   185  039F                     	;# 
   186  0415                     	;# 
   187  0416                     	;# 
   188  0417                     	;# 
   189  041C                     	;# 
   190  041D                     	;# 
   191  041E                     	;# 
   192  0FE4                     	;# 
   193  0FE5                     	;# 
   194  0FE6                     	;# 
   195  0FE7                     	;# 
   196  0FE8                     	;# 
   197  0FE9                     	;# 
   198  0FEA                     	;# 
   199  0FEB                     	;# 
   200  0FED                     	;# 
   201  0FEE                     	;# 
   202  0FEF                     	;# 
   203  0000                     	;# 
   204  0001                     	;# 
   205  0002                     	;# 
   206  0003                     	;# 
   207  0004                     	;# 
   208  0005                     	;# 
   209  0006                     	;# 
   210  0007                     	;# 
   211  0008                     	;# 
   212  0009                     	;# 
   213  000A                     	;# 
   214  000B                     	;# 
   215  000C                     	;# 
   216  000E                     	;# 
   217  0011                     	;# 
   218  0012                     	;# 
   219  0013                     	;# 
   220  0015                     	;# 
   221  0016                     	;# 
   222  0016                     	;# 
   223  0017                     	;# 
   224  0018                     	;# 
   225  0019                     	;# 
   226  001A                     	;# 
   227  001B                     	;# 
   228  001C                     	;# 
   229  001E                     	;# 
   230  001F                     	;# 
   231  008C                     	;# 
   232  008E                     	;# 
   233  0091                     	;# 
   234  0092                     	;# 
   235  0093                     	;# 
   236  0095                     	;# 
   237  0096                     	;# 
   238  0097                     	;# 
   239  0098                     	;# 
   240  0099                     	;# 
   241  009A                     	;# 
   242  009B                     	;# 
   243  009B                     	;# 
   244  009C                     	;# 
   245  009D                     	;# 
   246  009E                     	;# 
   247  010C                     	;# 
   248  010E                     	;# 
   249  0111                     	;# 
   250  0112                     	;# 
   251  0113                     	;# 
   252  0114                     	;# 
   253  0115                     	;# 
   254  0116                     	;# 
   255  0117                     	;# 
   256  0118                     	;# 
   257  0119                     	;# 
   258  011A                     	;# 
   259  011B                     	;# 
   260  011D                     	;# 
   261  011E                     	;# 
   262  018C                     	;# 
   263  018E                     	;# 
   264  0191                     	;# 
   265  0191                     	;# 
   266  0192                     	;# 
   267  0193                     	;# 
   268  0193                     	;# 
   269  0193                     	;# 
   270  0194                     	;# 
   271  0195                     	;# 
   272  0196                     	;# 
   273  0199                     	;# 
   274  019A                     	;# 
   275  019B                     	;# 
   276  019B                     	;# 
   277  019C                     	;# 
   278  019D                     	;# 
   279  019E                     	;# 
   280  019F                     	;# 
   281  020C                     	;# 
   282  020E                     	;# 
   283  0211                     	;# 
   284  0211                     	;# 
   285  0212                     	;# 
   286  0212                     	;# 
   287  0213                     	;# 
   288  0213                     	;# 
   289  0214                     	;# 
   290  0214                     	;# 
   291  0215                     	;# 
   292  0215                     	;# 
   293  0215                     	;# 
   294  0216                     	;# 
   295  0216                     	;# 
   296  0217                     	;# 
   297  0217                     	;# 
   298  0291                     	;# 
   299  0291                     	;# 
   300  0292                     	;# 
   301  0293                     	;# 
   302  0294                     	;# 
   303  0295                     	;# 
   304  0295                     	;# 
   305  0296                     	;# 
   306  0298                     	;# 
   307  0298                     	;# 
   308  0299                     	;# 
   309  029A                     	;# 
   310  029B                     	;# 
   311  029C                     	;# 
   312  029D                     	;# 
   313  029E                     	;# 
   314  0311                     	;# 
   315  0311                     	;# 
   316  0312                     	;# 
   317  0313                     	;# 
   318  0318                     	;# 
   319  0318                     	;# 
   320  0319                     	;# 
   321  031A                     	;# 
   322  038C                     	;# 
   323  038E                     	;# 
   324  0391                     	;# 
   325  0392                     	;# 
   326  0393                     	;# 
   327  039A                     	;# 
   328  039C                     	;# 
   329  039D                     	;# 
   330  039E                     	;# 
   331  039F                     	;# 
   332  0415                     	;# 
   333  0416                     	;# 
   334  0417                     	;# 
   335  041C                     	;# 
   336  041D                     	;# 
   337  041E                     	;# 
   338  0FE4                     	;# 
   339  0FE5                     	;# 
   340  0FE6                     	;# 
   341  0FE7                     	;# 
   342  0FE8                     	;# 
   343  0FE9                     	;# 
   344  0FEA                     	;# 
   345  0FEB                     	;# 
   346  0FED                     	;# 
   347  0FEE                     	;# 
   348  0FEF                     	;# 
   349                           
   350                           	psect	nvBANK0
   351  0066                     __pnvBANK0:
   352  0066                     _sCurrentState:
   353  0066                     	ds	2
   354  0019                     _T1GCON	set	25
   355  0018                     _T1CONbits	set	24
   356  000C                     _PORTAbits	set	12
   357  000B                     _INTCONbits	set	11
   358  0011                     _PIR1bits	set	17
   359  0016                     _TMR1L	set	22
   360  0017                     _TMR1H	set	23
   361  000E                     _PORTCbits	set	14
   362  009B                     _ADRESL	set	155
   363  009C                     _ADRESH	set	156
   364  009D                     _ADCON0bits	set	157
   365  0091                     _PIE1bits	set	145
   366  009E                     _ADCON1bits	set	158
   367  008E                     _TRISCbits	set	142
   368  008C                     _TRISAbits	set	140
   369  0095                     _OPTION_REGbits	set	149
   370  0099                     _OSCCONbits	set	153
   371  0118                     _DACCON0	set	280
   372  010E                     _LATCbits	set	270
   373  010C                     _LATAbits	set	268
   374  0199                     _RCREG	set	409
   375  019D                     _RCSTAbits	set	413
   376  019A                     _TXREG	set	410
   377  019E                     _TXSTAbits	set	414
   378  019B                     _SPBRGL	set	411
   379  019C                     _SPBRGH	set	412
   380  019D                     _RCSTA	set	413
   381  019E                     _TXSTA	set	414
   382  019F                     _BAUDCON	set	415
   383  018E                     _ANSELCbits	set	398
   384  018C                     _ANSELAbits	set	396
   385  0215                     _SSP1CON1	set	533
   386  0214                     _SSP1STAT	set	532
   387  020E                     _WPUC	set	526
   388  020C                     _WPUA	set	524
   389                           
   390                           	psect	cinit
   391  003E                     start_initialization:	
   392                           ; #config settings
   393                           
   394  003E                     __initialization:
   395                           
   396                           ; Clear objects allocated to COMMON
   397  003E  01F9               	clrf	__pbssCOMMON& (0+127)
   398                           
   399                           ; Clear objects allocated to BANK0
   400  003F  3054               	movlw	low __pbssBANK0
   401  0040  0084               	movwf	4
   402  0041  3000               	movlw	high __pbssBANK0
   403  0042  0085               	movwf	5
   404  0043  3012               	movlw	18
   405  0044  3185  250B  3180   	fcall	clear_ram0
   406  0047                     end_of_initialization:	
   407                           ;End of C runtime variable initialization code
   408                           
   409  0047                     __end_of__initialization:
   410  0047  107E               	bcf	int$flags,0	;clear compiler interrupt flag (level 1)
   411  0048  0020               	movlb	0
   412  0049  3180  284B         	ljmp	_main	;jump to C main() function
   413                           
   414                           	psect	bssCOMMON
   415  0079                     __pbssCOMMON:
   416  0079                     _bFlags_2:
   417  0079                     	ds	1
   418                           
   419                           	psect	bssBANK0
   420  0054                     __pbssBANK0:
   421  0054                     _sGenTimer2:
   422  0054                     	ds	4
   423  0058                     _sGenTimer1:
   424  0058                     	ds	4
   425  005C                     _trigStatDebug:
   426  005C                     	ds	2
   427  005E                     _swCurrentADCVal:
   428  005E                     	ds	2
   429  0060                     _sLastState:
   430  0060                     	ds	2
   431  0062                     _bADCLow:
   432  0062                     	ds	1
   433  0063                     _bADCHigh:
   434  0063                     	ds	1
   435  0064                     _bFlags_1:
   436  0064                     	ds	1
   437  0065                     _bRisingEdges:
   438  0065                     	ds	1
   439                           
   440                           	psect	clrtext
   441  050B                     clear_ram0:	
   442                           ;	Called with FSR0 containing the base address, and
   443                           ;	WREG with the size to clear
   444                           
   445  050B  0064               	clrwdt	;clear the watchdog before getting into this loop
   446  050C                     clrloop0:
   447  050C  0180               	clrf	0	;clear RAM location pointed to by FSR
   448  050D  3101               	addfsr 0,1
   449  050E  0B89               	decfsz	9,f	;Have we reached the end of clearing yet?
   450  050F  2D0C               	goto	clrloop0	;have we reached the end yet?
   451  0510  3400               	retlw	0	;all done for this memory range, return
   452                           
   453                           	psect	cstackCOMMON
   454  0070                     __pcstackCOMMON:
   455  0070                     ?_TMR1_Init:
   456  0070                     ?_Enable_Int:	
   457                           ; 1 bytes @ 0x0
   458                           
   459  0070                     ?_Enable_Timer1_Int:	
   460                           ; 1 bytes @ 0x0
   461                           
   462  0070                     ?_Enable_External_Rising_Int:	
   463                           ; 1 bytes @ 0x0
   464                           
   465  0070                     ?_main:	
   466                           ; 1 bytes @ 0x0
   467                           
   468  0070                     ?_ISR_Routine:	
   469                           ; 1 bytes @ 0x0
   470                           
   471  0070                     ??_ISR_Routine:	
   472                           ; 1 bytes @ 0x0
   473                           
   474                           
   475                           ; 1 bytes @ 0x0
   476  0070                     	ds	1
   477  0071                     ??_TMR1_Init:
   478  0071                     ??_Enable_Int:	
   479                           ; 1 bytes @ 0x1
   480                           
   481  0071                     ??_Enable_Timer1_Int:	
   482                           ; 1 bytes @ 0x1
   483                           
   484  0071                     ??_Enable_External_Rising_Int:	
   485                           ; 1 bytes @ 0x1
   486                           
   487  0071                     ?___xxtofl:	
   488                           ; 1 bytes @ 0x1
   489                           
   490  0071                     ___xxtofl@val:	
   491                           ; 4 bytes @ 0x1
   492                           
   493                           
   494                           ; 4 bytes @ 0x1
   495  0071                     	ds	4
   496  0075                     ??___xxtofl:
   497                           
   498                           ; 1 bytes @ 0x5
   499  0075                     	ds	4
   500                           
   501                           	psect	cstackBANK0
   502  0020                     __pcstackBANK0:
   503  0020                     ___xxtofl@sign:
   504                           
   505                           ; 1 bytes @ 0x0
   506  0020                     	ds	1
   507  0021                     ___xxtofl@exp:
   508                           
   509                           ; 1 bytes @ 0x1
   510  0021                     	ds	1
   511  0022                     ___xxtofl@arg:
   512                           
   513                           ; 4 bytes @ 0x2
   514  0022                     	ds	4
   515  0026                     ?___fldiv:
   516  0026                     ___fldiv@a:	
   517                           ; 4 bytes @ 0x6
   518                           
   519                           
   520                           ; 4 bytes @ 0x6
   521  0026                     	ds	4
   522  002A                     ___fldiv@b:
   523                           
   524                           ; 4 bytes @ 0xA
   525  002A                     	ds	4
   526  002E                     ??___fldiv:
   527                           
   528                           ; 1 bytes @ 0xE
   529  002E                     	ds	5
   530  0033                     ___fldiv@rem:
   531                           
   532                           ; 4 bytes @ 0x13
   533  0033                     	ds	4
   534  0037                     ___fldiv@sign:
   535                           
   536                           ; 1 bytes @ 0x17
   537  0037                     	ds	1
   538  0038                     ___fldiv@new_exp:
   539                           
   540                           ; 2 bytes @ 0x18
   541  0038                     	ds	2
   542  003A                     ___fldiv@grs:
   543                           
   544                           ; 4 bytes @ 0x1A
   545  003A                     	ds	4
   546  003E                     ___fldiv@bexp:
   547                           
   548                           ; 1 bytes @ 0x1E
   549  003E                     	ds	1
   550  003F                     ___fldiv@aexp:
   551                           
   552                           ; 1 bytes @ 0x1F
   553  003F                     	ds	1
   554  0040                     ?___flge:
   555  0040                     ___flge@ff1:	
   556                           ; 1 bit 
   557                           
   558                           
   559                           ; 4 bytes @ 0x20
   560  0040                     	ds	4
   561  0044                     ___flge@ff2:
   562                           
   563                           ; 4 bytes @ 0x24
   564  0044                     	ds	4
   565  0048                     ??___flge:
   566                           
   567                           ; 1 bytes @ 0x28
   568  0048                     	ds	4
   569  004C                     ??_main:
   570                           
   571                           ; 1 bytes @ 0x2C
   572  004C                     	ds	4
   573  0050                     main@sGenTimer1InSec:
   574                           
   575                           ; 4 bytes @ 0x30
   576  0050                     	ds	4
   577                           
   578                           	psect	maintext
   579  004B                     __pmaintext:	
   580 ;;
   581 ;;Main: autosize = 0, tempsize = 4, incstack = 0, save=0
   582 ;;
   583 ;; *************** function _main *****************
   584 ;; Defined at:
   585 ;;		line 65 in file "OpticalSpeedSensor.c"
   586 ;; Parameters:    Size  Location     Type
   587 ;;		None
   588 ;; Auto vars:     Size  Location     Type
   589 ;;  ii              2    0        int 
   590 ;;  sGenTimer1In    4   48[BANK0 ] float 
   591 ;; Return value:  Size  Location     Type
   592 ;;                  1    wreg      void 
   593 ;; Registers used:
   594 ;;		wreg, fsr0l, fsr0h, status,2, status,0, pclath, cstack
   595 ;; Tracked objects:
   596 ;;		On entry : B1F/0
   597 ;;		On exit  : 0/0
   598 ;;		Unchanged: 0/0
   599 ;; Data sizes:     COMMON   BANK0   BANK1   BANK2   BANK3   BANK4   BANK5   BANK6   BANK7   BANK8   BANK9  BANK10  BANK1
      +1  BANK12
   600 ;;      Params:         0       0       0       0       0       0       0       0       0       0       0       0       
      +0       0
   601 ;;      Locals:         0       6       0       0       0       0       0       0       0       0       0       0       
      +0       0
   602 ;;      Temps:          0       4       0       0       0       0       0       0       0       0       0       0       
      +0       0
   603 ;;      Totals:         0      10       0       0       0       0       0       0       0       0       0       0       
      +0       0
   604 ;;Total ram usage:       10 bytes
   605 ;; Hardware stack levels required when called:    2
   606 ;; This function calls:
   607 ;;		_Enable_External_Rising_Int
   608 ;;		_Enable_Int
   609 ;;		_Enable_Timer1_Int
   610 ;;		_TMR1_Init
   611 ;;		___fldiv
   612 ;;		___flge
   613 ;;		___xxtofl
   614 ;; This function is called by:
   615 ;;		Startup code after reset
   616 ;; This function uses a non-reentrant model
   617 ;;
   618                           
   619                           
   620                           ;psect for function _main
   621  004B                     _main:
   622  004B                     l1840:	
   623                           ;incstack = 0
   624                           ; Regs used in _main: [wreg-fsr0h+status,2+status,0+pclath+cstack]
   625                           
   626                           
   627                           ;OpticalSpeedSensor.c: 69:     OSCCONbits.SPLLEN=0x00;
   628  004B  0021               	movlb	1	; select bank1
   629  004C  1399               	bcf	25,7	;volatile
   630  004D                     l1842:
   631                           
   632                           ;OpticalSpeedSensor.c: 70:     OSCCONbits.SCS=0x02;
   633  004D  0819               	movf	25,w	;volatile
   634  004E  39FC               	andlw	-4
   635  004F  3802               	iorlw	2
   636  0050  0099               	movwf	25	;volatile
   637                           
   638                           ;OpticalSpeedSensor.c: 71:     OSCCONbits.IRCF=0x0F;
   639  0051  3078               	movlw	120
   640  0052  0499               	iorwf	25,f	;volatile
   641  0053                     l1844:
   642                           
   643                           ;OpticalSpeedSensor.c: 76:     OPTION_REGbits.nWPUEN = 0;
   644  0053  1395               	bcf	21,7	;volatile
   645  0054                     l1846:
   646                           
   647                           ;OpticalSpeedSensor.c: 81:     ANSELAbits.ANSA0 = 0;
   648  0054  0023               	movlb	3	; select bank3
   649  0055  100C               	bcf	12,0	;volatile
   650  0056                     l1848:
   651                           
   652                           ;OpticalSpeedSensor.c: 82:     ANSELAbits.ANSA1 = 0;
   653  0056  108C               	bcf	12,1	;volatile
   654  0057                     l1850:
   655                           
   656                           ;OpticalSpeedSensor.c: 83:     ANSELAbits.ANSA2 = 0;
   657  0057  110C               	bcf	12,2	;volatile
   658  0058                     l1852:
   659                           
   660                           ;OpticalSpeedSensor.c: 84:     ANSELAbits.ANSA4 = 0;
   661  0058  120C               	bcf	12,4	;volatile
   662  0059                     l1854:
   663                           
   664                           ;OpticalSpeedSensor.c: 86:     WPUA = 0x00;
   665  0059  0024               	movlb	4	; select bank4
   666  005A  018C               	clrf	12	;volatile
   667  005B                     l1856:
   668                           
   669                           ;OpticalSpeedSensor.c: 95:     TRISAbits.TRISA0 = 0;
   670  005B  0021               	movlb	1	; select bank1
   671  005C  100C               	bcf	12,0	;volatile
   672  005D                     l1858:
   673                           
   674                           ;OpticalSpeedSensor.c: 96:     LATAbits.LATA0 = 0;
   675  005D  0022               	movlb	2	; select bank2
   676  005E  100C               	bcf	12,0	;volatile
   677  005F                     l1860:
   678                           
   679                           ;OpticalSpeedSensor.c: 98:     TRISAbits.TRISA1 = 0;
   680  005F  0021               	movlb	1	; select bank1
   681  0060  108C               	bcf	12,1	;volatile
   682  0061                     l1862:
   683                           
   684                           ;OpticalSpeedSensor.c: 99:     LATAbits.LATA1 = 0;
   685  0061  0022               	movlb	2	; select bank2
   686  0062  108C               	bcf	12,1	;volatile
   687  0063                     l1864:
   688                           
   689                           ;OpticalSpeedSensor.c: 101:     TRISAbits.TRISA2 = 1;
   690  0063  0021               	movlb	1	; select bank1
   691  0064  150C               	bsf	12,2	;volatile
   692  0065                     l1866:
   693                           
   694                           ;OpticalSpeedSensor.c: 104:     TRISAbits.TRISA3 = 1;
   695  0065  158C               	bsf	12,3	;volatile
   696  0066                     l1868:
   697                           
   698                           ;OpticalSpeedSensor.c: 106:     TRISAbits.TRISA4 = 0;
   699  0066  120C               	bcf	12,4	;volatile
   700  0067                     l1870:
   701                           
   702                           ;OpticalSpeedSensor.c: 107:     LATAbits.LATA4 = 1;
   703  0067  0022               	movlb	2	; select bank2
   704  0068  160C               	bsf	12,4	;volatile
   705  0069                     l1872:
   706                           
   707                           ;OpticalSpeedSensor.c: 109:     TRISAbits.TRISA5 = 0;
   708  0069  0021               	movlb	1	; select bank1
   709  006A  128C               	bcf	12,5	;volatile
   710  006B                     l1874:
   711                           
   712                           ;OpticalSpeedSensor.c: 110:     LATAbits.LATA5 = 1;
   713  006B  0022               	movlb	2	; select bank2
   714  006C  168C               	bsf	12,5	;volatile
   715  006D                     l1876:
   716                           
   717                           ;OpticalSpeedSensor.c: 118:     ANSELCbits.ANSC0 = 0;
   718  006D  0023               	movlb	3	; select bank3
   719  006E  100E               	bcf	14,0	;volatile
   720  006F                     l1878:
   721                           
   722                           ;OpticalSpeedSensor.c: 119:     ANSELCbits.ANSC1 = 0;
   723  006F  108E               	bcf	14,1	;volatile
   724  0070                     l1880:
   725                           
   726                           ;OpticalSpeedSensor.c: 120:     ANSELCbits.ANSC2 = 0;
   727  0070  110E               	bcf	14,2	;volatile
   728  0071                     l1882:
   729                           
   730                           ;OpticalSpeedSensor.c: 121:     ANSELCbits.ANSC3 = 0;
   731  0071  118E               	bcf	14,3	;volatile
   732  0072                     l1884:
   733                           
   734                           ;OpticalSpeedSensor.c: 123:     WPUC = 0x00;
   735  0072  0024               	movlb	4	; select bank4
   736  0073  018E               	clrf	14	;volatile
   737  0074                     l1886:
   738                           
   739                           ;OpticalSpeedSensor.c: 133:     TRISCbits.TRISC0 = 0;
   740  0074  0021               	movlb	1	; select bank1
   741  0075  100E               	bcf	14,0	;volatile
   742  0076                     l1888:
   743                           
   744                           ;OpticalSpeedSensor.c: 134:     LATCbits.LATC0 = 0;
   745  0076  0022               	movlb	2	; select bank2
   746  0077  100E               	bcf	14,0	;volatile
   747  0078                     l1890:
   748                           
   749                           ;OpticalSpeedSensor.c: 137:     TRISCbits.TRISC1 = 0;
   750  0078  0021               	movlb	1	; select bank1
   751  0079  108E               	bcf	14,1	;volatile
   752  007A                     l1892:
   753                           
   754                           ;OpticalSpeedSensor.c: 138:     LATCbits.LATC1 = 0;
   755  007A  0022               	movlb	2	; select bank2
   756  007B  108E               	bcf	14,1	;volatile
   757  007C                     l1894:
   758                           
   759                           ;OpticalSpeedSensor.c: 141:     TRISCbits.TRISC2 = 0;
   760  007C  0021               	movlb	1	; select bank1
   761  007D  110E               	bcf	14,2	;volatile
   762  007E                     l1896:
   763                           
   764                           ;OpticalSpeedSensor.c: 142:     LATCbits.LATC2 = 0;
   765  007E  0022               	movlb	2	; select bank2
   766  007F  110E               	bcf	14,2	;volatile
   767  0080                     l1898:
   768                           
   769                           ;OpticalSpeedSensor.c: 145:     TRISCbits.TRISC3 = 1;
   770  0080  0021               	movlb	1	; select bank1
   771  0081  158E               	bsf	14,3	;volatile
   772  0082                     l1900:
   773                           
   774                           ;OpticalSpeedSensor.c: 148:     TRISCbits.TRISC4 = 0;
   775  0082  120E               	bcf	14,4	;volatile
   776  0083                     l1902:
   777                           
   778                           ;OpticalSpeedSensor.c: 149:     LATCbits.LATC4 = 0;
   779  0083  0022               	movlb	2	; select bank2
   780  0084  120E               	bcf	14,4	;volatile
   781  0085                     l1904:
   782                           
   783                           ;OpticalSpeedSensor.c: 152:     TRISCbits.TRISC5 = 0;
   784  0085  0021               	movlb	1	; select bank1
   785  0086  128E               	bcf	14,5	;volatile
   786  0087                     l1906:
   787                           
   788                           ;OpticalSpeedSensor.c: 153:     LATCbits.LATC5 = 0;
   789  0087  0022               	movlb	2	; select bank2
   790  0088  128E               	bcf	14,5	;volatile
   791  0089                     l1908:
   792                           
   793                           ;OpticalSpeedSensor.c: 162:     DACCON0 = 0;
   794  0089  0198               	clrf	24	;volatile
   795  008A                     l1910:
   796                           
   797                           ;OpticalSpeedSensor.c: 167:     TMR1_Init();
   798  008A  3184  24FE  3180   	fcall	_TMR1_Init
   799  008D                     l1912:
   800                           
   801                           ;OpticalSpeedSensor.c: 178:     Enable_Int();
   802  008D  3185  251B  3180   	fcall	_Enable_Int
   803  0090                     l1914:
   804                           
   805                           ;OpticalSpeedSensor.c: 180:     Enable_Timer1_Int();
   806  0090  3185  2511  3180   	fcall	_Enable_Timer1_Int
   807  0093                     l1916:
   808                           
   809                           ;OpticalSpeedSensor.c: 186:     Enable_External_Rising_Int();
   810  0093  3185  2516  3180   	fcall	_Enable_External_Rising_Int
   811  0096                     l1918:
   812                           
   813                           ;OpticalSpeedSensor.c: 188:     sCurrentState = 1;
   814  0096  3001               	movlw	1
   815  0097  0020               	movlb	0	; select bank0
   816  0098  00E6               	movwf	_sCurrentState
   817  0099  3000               	movlw	0
   818  009A  00E7               	movwf	_sCurrentState+1
   819  009B                     l1920:
   820                           
   821                           ;OpticalSpeedSensor.c: 190:     trigStatDebug = 0;
   822  009B  01DC               	clrf	_trigStatDebug
   823  009C  01DD               	clrf	_trigStatDebug+1
   824  009D                     l1922:
   825                           
   826                           ;OpticalSpeedSensor.c: 192:     if(!PORTCbits.RC3 == 0)
   827  009D  080E               	movf	14,w	;volatile
   828  009E  289F               	goto	l110
   829  009F                     l109:	
   830                           ;OpticalSpeedSensor.c: 193:     {;OpticalSpeedSensor.c: 195:     }
   831                           
   832  009F                     l110:	
   833                           ;OpticalSpeedSensor.c: 199:     while(1)
   834                           
   835                           
   836                           ;OpticalSpeedSensor.c: 200:     {;OpticalSpeedSensor.c: 201:         __nop();
   837  009F  0000               	nop
   838                           
   839                           ;OpticalSpeedSensor.c: 203:         switch(sCurrentState)
   840  00A0  29F3               	goto	l2018
   841  00A1                     l112:	
   842                           ;OpticalSpeedSensor.c: 204:         {;OpticalSpeedSensor.c: 206:             case 1:
   843                           
   844                           
   845                           ;OpticalSpeedSensor.c: 208:                 if ((((bFlags_1) & (0x01)) != 0)){
   846  00A1  1C64               	btfss	_bFlags_1,0
   847  00A2  28A4               	goto	u1451
   848  00A3  28A5               	goto	u1450
   849  00A4                     u1451:
   850  00A4  28AC               	goto	l113
   851  00A5                     u1450:
   852  00A5                     l1924:
   853                           
   854                           ;OpticalSpeedSensor.c: 209:                     LATAbits.LATA5 = 1;
   855  00A5  0022               	movlb	2	; select bank2
   856  00A6  168C               	bsf	12,5	;volatile
   857  00A7                     l1926:
   858                           
   859                           ;OpticalSpeedSensor.c: 210:                     ((bFlags_1) &= ((~(0x01))));
   860  00A7  30FE               	movlw	254
   861  00A8  0020               	movlb	0	; select bank0
   862  00A9  00CC               	movwf	??_main
   863  00AA  084C               	movf	??_main,w
   864  00AB  05E4               	andwf	_bFlags_1,f
   865  00AC                     l113:	
   866                           ;OpticalSpeedSensor.c: 211:                 }
   867                           
   868                           
   869                           ;OpticalSpeedSensor.c: 213:                 ((bFlags_1) &= ((~(0x10))));
   870  00AC  30EF               	movlw	239
   871  00AD  00CC               	movwf	??_main
   872  00AE  084C               	movf	??_main,w
   873  00AF  05E4               	andwf	_bFlags_1,f
   874  00B0                     l1928:
   875                           
   876                           ;OpticalSpeedSensor.c: 214:                 ((bFlags_1) |= (0x04));
   877  00B0  1564               	bsf	_bFlags_1,2
   878  00B1                     l1930:
   879                           
   880                           ;OpticalSpeedSensor.c: 215:                 LATAbits.LATA4 = 0;
   881  00B1  0022               	movlb	2	; select bank2
   882  00B2  120C               	bcf	12,4	;volatile
   883  00B3                     l1932:
   884                           
   885                           ;OpticalSpeedSensor.c: 218:                 if (!PORTCbits.RC3)
   886  00B3  0020               	movlb	0	; select bank0
   887  00B4  198E               	btfsc	14,3	;volatile
   888  00B5  28B7               	goto	u1461
   889  00B6  28B8               	goto	u1460
   890  00B7                     u1461:
   891  00B7  28C1               	goto	l1936
   892  00B8                     u1460:
   893  00B8                     l1934:
   894                           
   895                           ;OpticalSpeedSensor.c: 219:                 {;OpticalSpeedSensor.c: 220:                
      +                               sLastState = 1;
   896  00B8  3001               	movlw	1
   897  00B9  00E0               	movwf	_sLastState
   898  00BA  3000               	movlw	0
   899  00BB  00E1               	movwf	_sLastState+1
   900                           
   901                           ;OpticalSpeedSensor.c: 221:                     sCurrentState = 2;
   902  00BC  3002               	movlw	2
   903  00BD  00E6               	movwf	_sCurrentState
   904  00BE  3000               	movlw	0
   905  00BF  00E7               	movwf	_sCurrentState+1
   906                           
   907                           ;OpticalSpeedSensor.c: 222:                 }
   908  00C0  289F               	goto	l110
   909  00C1                     l1936:
   910                           
   911                           ;OpticalSpeedSensor.c: 224:                 {;OpticalSpeedSensor.c: 225:                
      +                               sLastState = 1;
   912  00C1  3001               	movlw	1
   913  00C2  00E0               	movwf	_sLastState
   914  00C3  3000               	movlw	0
   915  00C4  00E1               	movwf	_sLastState+1
   916                           
   917                           ;OpticalSpeedSensor.c: 226:                     sCurrentState = 5;
   918  00C5  3005               	movlw	5
   919  00C6  00E6               	movwf	_sCurrentState
   920  00C7  3000               	movlw	0
   921  00C8  00E7               	movwf	_sCurrentState+1
   922  00C9  289F               	goto	l110
   923  00CA                     l117:	
   924                           ;OpticalSpeedSensor.c: 232:             case 2:
   925                           
   926                           
   927                           ;OpticalSpeedSensor.c: 234:                 if ((((bFlags_1) & (0x01)) != 0)){
   928  00CA  1C64               	btfss	_bFlags_1,0
   929  00CB  28CD               	goto	u1471
   930  00CC  28CE               	goto	u1470
   931  00CD                     u1471:
   932  00CD  28D5               	goto	l1942
   933  00CE                     u1470:
   934  00CE                     l1938:
   935                           
   936                           ;OpticalSpeedSensor.c: 235:                     LATAbits.LATA5 = 1;
   937  00CE  0022               	movlb	2	; select bank2
   938  00CF  168C               	bsf	12,5	;volatile
   939  00D0                     l1940:
   940                           
   941                           ;OpticalSpeedSensor.c: 236:                     ((bFlags_1) &= ((~(0x01))));
   942  00D0  30FE               	movlw	254
   943  00D1  0020               	movlb	0	; select bank0
   944  00D2  00CC               	movwf	??_main
   945  00D3  084C               	movf	??_main,w
   946  00D4  05E4               	andwf	_bFlags_1,f
   947  00D5                     l1942:
   948                           
   949                           ;OpticalSpeedSensor.c: 240:                 TMR1H = 0xFC;
   950  00D5  30FC               	movlw	252
   951  00D6  0097               	movwf	23	;volatile
   952  00D7                     l1944:
   953                           
   954                           ;OpticalSpeedSensor.c: 241:                 TMR1L = 0x18;
   955  00D7  3018               	movlw	24
   956  00D8  0096               	movwf	22	;volatile
   957  00D9                     l1946:
   958                           
   959                           ;OpticalSpeedSensor.c: 243:                 bRisingEdges = 0;
   960  00D9  01E5               	clrf	_bRisingEdges
   961  00DA                     l1948:
   962                           
   963                           ;OpticalSpeedSensor.c: 244:                 sGenTimer1 = 0;
   964  00DA  3000               	movlw	0
   965  00DB  00DB               	movwf	_sGenTimer1+3
   966  00DC  3000               	movlw	0
   967  00DD  00DA               	movwf	_sGenTimer1+2
   968  00DE  3000               	movlw	0
   969  00DF  00D9               	movwf	_sGenTimer1+1
   970  00E0  3000               	movlw	0
   971  00E1  00D8               	movwf	_sGenTimer1
   972  00E2                     l1950:
   973                           
   974                           ;OpticalSpeedSensor.c: 246:                 sLastState = 2;
   975  00E2  3002               	movlw	2
   976  00E3  00E0               	movwf	_sLastState
   977  00E4  3000               	movlw	0
   978  00E5  00E1               	movwf	_sLastState+1
   979  00E6                     l1952:
   980                           
   981                           ;OpticalSpeedSensor.c: 247:                 sCurrentState = 3;
   982  00E6  3003               	movlw	3
   983  00E7  00E6               	movwf	_sCurrentState
   984  00E8  3000               	movlw	0
   985  00E9  00E7               	movwf	_sCurrentState+1
   986                           
   987                           ;OpticalSpeedSensor.c: 249:             break;
   988  00EA  289F               	goto	l110
   989  00EB                     l119:	
   990                           ;OpticalSpeedSensor.c: 253:             case 3:
   991                           
   992                           
   993                           ;OpticalSpeedSensor.c: 255:                 if ((((bFlags_1) & (0x01)) != 0)){
   994  00EB  1C64               	btfss	_bFlags_1,0
   995  00EC  28EE               	goto	u1481
   996  00ED  28EF               	goto	u1480
   997  00EE                     u1481:
   998  00EE  28F6               	goto	l1958
   999  00EF                     u1480:
  1000  00EF                     l1954:
  1001                           
  1002                           ;OpticalSpeedSensor.c: 256:                     LATAbits.LATA5 = 1;
  1003  00EF  0022               	movlb	2	; select bank2
  1004  00F0  168C               	bsf	12,5	;volatile
  1005  00F1                     l1956:
  1006                           
  1007                           ;OpticalSpeedSensor.c: 257:                     ((bFlags_1) &= ((~(0x01))));
  1008  00F1  30FE               	movlw	254
  1009  00F2  0020               	movlb	0	; select bank0
  1010  00F3  00CC               	movwf	??_main
  1011  00F4  084C               	movf	??_main,w
  1012  00F5  05E4               	andwf	_bFlags_1,f
  1013  00F6                     l1958:
  1014                           
  1015                           ;OpticalSpeedSensor.c: 261:                 if (!!PORTCbits.RC3)
  1016  00F6  1D8E               	btfss	14,3	;volatile
  1017  00F7  28F9               	goto	u1491
  1018  00F8  28FA               	goto	u1490
  1019  00F9                     u1491:
  1020  00F9  2903               	goto	l1962
  1021  00FA                     u1490:
  1022  00FA                     l1960:
  1023                           
  1024                           ;OpticalSpeedSensor.c: 262:                 {;OpticalSpeedSensor.c: 263:                
      +                               sLastState = 3;
  1025  00FA  3003               	movlw	3
  1026  00FB  00E0               	movwf	_sLastState
  1027  00FC  3000               	movlw	0
  1028  00FD  00E1               	movwf	_sLastState+1
  1029                           
  1030                           ;OpticalSpeedSensor.c: 264:                     sCurrentState = 4;
  1031  00FE  3004               	movlw	4
  1032  00FF  00E6               	movwf	_sCurrentState
  1033  0100  3000               	movlw	0
  1034  0101  00E7               	movwf	_sCurrentState+1
  1035                           
  1036                           ;OpticalSpeedSensor.c: 265:                 }
  1037  0102  289F               	goto	l110
  1038  0103                     l1962:
  1039  0103  085B               	movf	_sGenTimer1+3,w
  1040  0104  1D03               	btfss	3,2
  1041  0105  2911               	goto	u1500
  1042  0106  085A               	movf	_sGenTimer1+2,w
  1043  0107  1D03               	btfss	3,2
  1044  0108  2911               	goto	u1500
  1045  0109  3010               	movlw	16
  1046  010A  0258               	subwf	_sGenTimer1,w
  1047  010B  3027               	movlw	39
  1048  010C  3B59               	subwfb	_sGenTimer1+1,w
  1049  010D  1C03               	btfss	3,0
  1050  010E  2910               	goto	u1501
  1051  010F  2911               	goto	u1500
  1052  0110                     u1501:
  1053  0110  289F               	goto	l109
  1054  0111                     u1500:
  1055  0111                     l1964:
  1056                           
  1057                           ;OpticalSpeedSensor.c: 267:                 {;OpticalSpeedSensor.c: 268:                
      +                               sLastState = 3;
  1058  0111  3003               	movlw	3
  1059  0112  00E0               	movwf	_sLastState
  1060  0113  3000               	movlw	0
  1061  0114  00E1               	movwf	_sLastState+1
  1062                           
  1063                           ;OpticalSpeedSensor.c: 269:                     sCurrentState = 7;
  1064  0115  3007               	movlw	7
  1065  0116  00E6               	movwf	_sCurrentState
  1066  0117  3000               	movlw	0
  1067  0118  00E7               	movwf	_sCurrentState+1
  1068  0119  289F               	goto	l110
  1069  011A                     l124:	
  1070                           ;OpticalSpeedSensor.c: 277:             case 4:
  1071                           
  1072                           
  1073                           ;OpticalSpeedSensor.c: 279:                 if ((((bFlags_1) & (0x01)) != 0)){
  1074  011A  1C64               	btfss	_bFlags_1,0
  1075  011B  291D               	goto	u1511
  1076  011C  291E               	goto	u1510
  1077  011D                     u1511:
  1078  011D  2925               	goto	l1970
  1079  011E                     u1510:
  1080  011E                     l1966:
  1081                           
  1082                           ;OpticalSpeedSensor.c: 280:                     LATAbits.LATA5 = 1;
  1083  011E  0022               	movlb	2	; select bank2
  1084  011F  168C               	bsf	12,5	;volatile
  1085  0120                     l1968:
  1086                           
  1087                           ;OpticalSpeedSensor.c: 281:                     ((bFlags_1) &= ((~(0x01))));
  1088  0120  30FE               	movlw	254
  1089  0121  0020               	movlb	0	; select bank0
  1090  0122  00CC               	movwf	??_main
  1091  0123  084C               	movf	??_main,w
  1092  0124  05E4               	andwf	_bFlags_1,f
  1093  0125                     l1970:
  1094                           
  1095                           ;OpticalSpeedSensor.c: 283:                 float sGenTimer1InSec = sGenTimer1/(float)10
      +                          00;
  1096  0125  3044               	movlw	68
  1097  0126  00A9               	movwf	___fldiv@a+3
  1098  0127  307A               	movlw	122
  1099  0128  00A8               	movwf	___fldiv@a+2
  1100  0129  3000               	movlw	0
  1101  012A  00A7               	movwf	___fldiv@a+1
  1102  012B  3000               	movlw	0
  1103  012C  00A6               	movwf	___fldiv@a
  1104  012D  085B               	movf	_sGenTimer1+3,w
  1105  012E  00F4               	movwf	___xxtofl@val+3
  1106  012F  085A               	movf	_sGenTimer1+2,w
  1107  0130  00F3               	movwf	___xxtofl@val+2
  1108  0131  0859               	movf	_sGenTimer1+1,w
  1109  0132  00F2               	movwf	___xxtofl@val+1
  1110  0133  0858               	movf	_sGenTimer1,w
  1111  0134  00F1               	movwf	___xxtofl@val
  1112  0135  3000               	movlw	0
  1113  0136  3183  23C6  3180   	fcall	___xxtofl
  1114  0139  0874               	movf	?___xxtofl+3,w
  1115  013A  0020               	movlb	0	; select bank0
  1116  013B  00AD               	movwf	___fldiv@b+3
  1117  013C  0873               	movf	?___xxtofl+2,w
  1118  013D  00AC               	movwf	___fldiv@b+2
  1119  013E  0872               	movf	?___xxtofl+1,w
  1120  013F  00AB               	movwf	___fldiv@b+1
  1121  0140  0871               	movf	?___xxtofl,w
  1122  0141  00AA               	movwf	___fldiv@b
  1123  0142  3182  2212  3180   	fcall	___fldiv
  1124  0145  0020               	movlb	0	; select bank0
  1125  0146  0829               	movf	?___fldiv+3,w
  1126  0147  00D3               	movwf	main@sGenTimer1InSec+3
  1127  0148  0828               	movf	?___fldiv+2,w
  1128  0149  00D2               	movwf	main@sGenTimer1InSec+2
  1129  014A  0827               	movf	?___fldiv+1,w
  1130  014B  00D1               	movwf	main@sGenTimer1InSec+1
  1131  014C  0826               	movf	?___fldiv,w
  1132  014D  00D0               	movwf	main@sGenTimer1InSec
  1133  014E                     l1972:
  1134                           
  1135                           ;OpticalSpeedSensor.c: 284:                 if (bRisingEdges/sGenTimer1InSec >= 1)
  1136  014E  0853               	movf	main@sGenTimer1InSec+3,w
  1137  014F  00A9               	movwf	___fldiv@a+3
  1138  0150  0852               	movf	main@sGenTimer1InSec+2,w
  1139  0151  00A8               	movwf	___fldiv@a+2
  1140  0152  0851               	movf	main@sGenTimer1InSec+1,w
  1141  0153  00A7               	movwf	___fldiv@a+1
  1142  0154  0850               	movf	main@sGenTimer1InSec,w
  1143  0155  00A6               	movwf	___fldiv@a
  1144  0156  0865               	movf	_bRisingEdges,w
  1145  0157  00CC               	movwf	??_main
  1146  0158  01CD               	clrf	??_main+1
  1147  0159  01CE               	clrf	??_main+2
  1148  015A  01CF               	clrf	??_main+3
  1149  015B  084F               	movf	??_main+3,w
  1150  015C  00F4               	movwf	___xxtofl@val+3
  1151  015D  084E               	movf	??_main+2,w
  1152  015E  00F3               	movwf	___xxtofl@val+2
  1153  015F  084D               	movf	??_main+1,w
  1154  0160  00F2               	movwf	___xxtofl@val+1
  1155  0161  084C               	movf	??_main,w
  1156  0162  00F1               	movwf	___xxtofl@val
  1157  0163  3001               	movlw	1
  1158  0164  3183  23C6  3180   	fcall	___xxtofl
  1159  0167  0874               	movf	?___xxtofl+3,w
  1160  0168  0020               	movlb	0	; select bank0
  1161  0169  00AD               	movwf	___fldiv@b+3
  1162  016A  0873               	movf	?___xxtofl+2,w
  1163  016B  00AC               	movwf	___fldiv@b+2
  1164  016C  0872               	movf	?___xxtofl+1,w
  1165  016D  00AB               	movwf	___fldiv@b+1
  1166  016E  0871               	movf	?___xxtofl,w
  1167  016F  00AA               	movwf	___fldiv@b
  1168  0170  3182  2212  3180   	fcall	___fldiv
  1169  0173  0020               	movlb	0	; select bank0
  1170  0174  0829               	movf	?___fldiv+3,w
  1171  0175  00C3               	movwf	___flge@ff1+3
  1172  0176  0828               	movf	?___fldiv+2,w
  1173  0177  00C2               	movwf	___flge@ff1+2
  1174  0178  0827               	movf	?___fldiv+1,w
  1175  0179  00C1               	movwf	___flge@ff1+1
  1176  017A  0826               	movf	?___fldiv,w
  1177  017B  00C0               	movwf	___flge@ff1
  1178  017C  303F               	movlw	63
  1179  017D  00C7               	movwf	___flge@ff2+3
  1180  017E  3080               	movlw	128
  1181  017F  00C6               	movwf	___flge@ff2+2
  1182  0180  3000               	movlw	0
  1183  0181  00C5               	movwf	___flge@ff2+1
  1184  0182  3000               	movlw	0
  1185  0183  00C4               	movwf	___flge@ff2
  1186  0184  3184  2473  3180   	fcall	___flge
  1187  0187  1C03               	btfss	3,0
  1188  0188  298A               	goto	u1521
  1189  0189  298B               	goto	u1520
  1190  018A                     u1521:
  1191  018A  2995               	goto	l1976
  1192  018B                     u1520:
  1193  018B                     l1974:
  1194                           
  1195                           ;OpticalSpeedSensor.c: 285:                 {;OpticalSpeedSensor.c: 286:                
      +                               sLastState = 4;
  1196  018B  3004               	movlw	4
  1197  018C  0020               	movlb	0	; select bank0
  1198  018D  00E0               	movwf	_sLastState
  1199  018E  3000               	movlw	0
  1200  018F  00E1               	movwf	_sLastState+1
  1201                           
  1202                           ;OpticalSpeedSensor.c: 287:                     sCurrentState = 5;
  1203  0190  3005               	movlw	5
  1204  0191  00E6               	movwf	_sCurrentState
  1205  0192  3000               	movlw	0
  1206  0193  00E7               	movwf	_sCurrentState+1
  1207                           
  1208                           ;OpticalSpeedSensor.c: 288:                 }
  1209  0194  289F               	goto	l110
  1210  0195                     l1976:
  1211                           
  1212                           ;OpticalSpeedSensor.c: 290:                 {;OpticalSpeedSensor.c: 291:                
      +                               sLastState = 4;
  1213  0195  3004               	movlw	4
  1214  0196  0020               	movlb	0	; select bank0
  1215  0197  00E0               	movwf	_sLastState
  1216  0198  3000               	movlw	0
  1217  0199  00E1               	movwf	_sLastState+1
  1218                           
  1219                           ;OpticalSpeedSensor.c: 292:                     sCurrentState = 6;
  1220  019A  3006               	movlw	6
  1221  019B  00E6               	movwf	_sCurrentState
  1222  019C  3000               	movlw	0
  1223  019D  00E7               	movwf	_sCurrentState+1
  1224  019E  289F               	goto	l110
  1225  019F                     l128:	
  1226                           ;OpticalSpeedSensor.c: 301:             case 5:
  1227                           
  1228                           
  1229                           ;OpticalSpeedSensor.c: 303:                 if ((((bFlags_1) & (0x01)) != 0)){
  1230  019F  1C64               	btfss	_bFlags_1,0
  1231  01A0  29A2               	goto	u1531
  1232  01A1  29A3               	goto	u1530
  1233  01A2                     u1531:
  1234  01A2  29AA               	goto	l1982
  1235  01A3                     u1530:
  1236  01A3                     l1978:
  1237                           
  1238                           ;OpticalSpeedSensor.c: 304:                     LATAbits.LATA5 = 1;
  1239  01A3  0022               	movlb	2	; select bank2
  1240  01A4  168C               	bsf	12,5	;volatile
  1241  01A5                     l1980:
  1242                           
  1243                           ;OpticalSpeedSensor.c: 305:                     ((bFlags_1) &= ((~(0x01))));
  1244  01A5  30FE               	movlw	254
  1245  01A6  0020               	movlb	0	; select bank0
  1246  01A7  00CC               	movwf	??_main
  1247  01A8  084C               	movf	??_main,w
  1248  01A9  05E4               	andwf	_bFlags_1,f
  1249  01AA                     l1982:
  1250                           
  1251                           ;OpticalSpeedSensor.c: 307:                 if (!PORTCbits.RC3)
  1252  01AA  198E               	btfsc	14,3	;volatile
  1253  01AB  29AD               	goto	u1541
  1254  01AC  29AE               	goto	u1540
  1255  01AD                     u1541:
  1256  01AD  289F               	goto	l110
  1257  01AE                     u1540:
  1258  01AE                     l1984:
  1259                           
  1260                           ;OpticalSpeedSensor.c: 308:                 {;OpticalSpeedSensor.c: 309:                
      +                               sLastState = 5;
  1261  01AE  3005               	movlw	5
  1262  01AF  00E0               	movwf	_sLastState
  1263  01B0  3000               	movlw	0
  1264  01B1  00E1               	movwf	_sLastState+1
  1265                           
  1266                           ;OpticalSpeedSensor.c: 310:                     sCurrentState = 2;
  1267  01B2  3002               	movlw	2
  1268  01B3  00E6               	movwf	_sCurrentState
  1269  01B4  3000               	movlw	0
  1270  01B5  00E7               	movwf	_sCurrentState+1
  1271  01B6  289F               	goto	l110
  1272  01B7                     l131:	
  1273                           ;OpticalSpeedSensor.c: 318:             case 6:
  1274                           
  1275                           
  1276                           ;OpticalSpeedSensor.c: 320:                 if ((((bFlags_1) & (0x01)) == 0)){
  1277  01B7  1864               	btfsc	_bFlags_1,0
  1278  01B8  29BA               	goto	u1551
  1279  01B9  29BB               	goto	u1550
  1280  01BA                     u1551:
  1281  01BA  29BF               	goto	l132
  1282  01BB                     u1550:
  1283  01BB                     l1986:
  1284                           
  1285                           ;OpticalSpeedSensor.c: 321:                     LATAbits.LATA5 = 0;
  1286  01BB  0022               	movlb	2	; select bank2
  1287  01BC  128C               	bcf	12,5	;volatile
  1288                           
  1289                           ;OpticalSpeedSensor.c: 322:                     ((bFlags_1) |= (0x01));
  1290  01BD  0020               	movlb	0	; select bank0
  1291  01BE  1464               	bsf	_bFlags_1,0
  1292  01BF                     l132:	
  1293                           ;OpticalSpeedSensor.c: 323:                 }
  1294                           
  1295                           
  1296                           ;OpticalSpeedSensor.c: 324:                 if (!PORTCbits.RC3)
  1297  01BF  198E               	btfsc	14,3	;volatile
  1298  01C0  29C2               	goto	u1561
  1299  01C1  29C3               	goto	u1560
  1300  01C2                     u1561:
  1301  01C2  289F               	goto	l110
  1302  01C3                     u1560:
  1303  01C3                     l1988:
  1304                           
  1305                           ;OpticalSpeedSensor.c: 325:                 {;OpticalSpeedSensor.c: 326:                
      +                               sLastState = 6;
  1306  01C3  3006               	movlw	6
  1307  01C4  00E0               	movwf	_sLastState
  1308  01C5  3000               	movlw	0
  1309  01C6  00E1               	movwf	_sLastState+1
  1310                           
  1311                           ;OpticalSpeedSensor.c: 327:                     sCurrentState = 2;
  1312  01C7  3002               	movlw	2
  1313  01C8  00E6               	movwf	_sCurrentState
  1314  01C9  3000               	movlw	0
  1315  01CA  00E7               	movwf	_sCurrentState+1
  1316  01CB  289F               	goto	l110
  1317  01CC                     l134:	
  1318                           ;OpticalSpeedSensor.c: 333:             case 7:
  1319                           
  1320                           
  1321                           ;OpticalSpeedSensor.c: 335:                 if ((((bFlags_1) & (0x01)) == 0)){
  1322  01CC  1864               	btfsc	_bFlags_1,0
  1323  01CD  29CF               	goto	u1571
  1324  01CE  29D0               	goto	u1570
  1325  01CF                     u1571:
  1326  01CF  29D4               	goto	l135
  1327  01D0                     u1570:
  1328  01D0                     l1990:
  1329                           
  1330                           ;OpticalSpeedSensor.c: 336:                     LATAbits.LATA5 = 0;
  1331  01D0  0022               	movlb	2	; select bank2
  1332  01D1  128C               	bcf	12,5	;volatile
  1333                           
  1334                           ;OpticalSpeedSensor.c: 337:                     ((bFlags_1) |= (0x01));
  1335  01D2  0020               	movlb	0	; select bank0
  1336  01D3  1464               	bsf	_bFlags_1,0
  1337  01D4                     l135:	
  1338                           ;OpticalSpeedSensor.c: 338:                 }
  1339                           
  1340                           
  1341                           ;OpticalSpeedSensor.c: 339:                 if (!!PORTCbits.RC3)
  1342  01D4  1D8E               	btfss	14,3	;volatile
  1343  01D5  29D7               	goto	u1581
  1344  01D6  29D8               	goto	u1580
  1345  01D7                     u1581:
  1346  01D7  289F               	goto	l110
  1347  01D8                     u1580:
  1348  01D8                     l1992:
  1349                           
  1350                           ;OpticalSpeedSensor.c: 340:                 {;OpticalSpeedSensor.c: 341:                
      +                               sLastState = 7;
  1351  01D8  3007               	movlw	7
  1352  01D9  00E0               	movwf	_sLastState
  1353  01DA  3000               	movlw	0
  1354  01DB  00E1               	movwf	_sLastState+1
  1355                           
  1356                           ;OpticalSpeedSensor.c: 342:                     sCurrentState = 6;
  1357  01DC  3006               	movlw	6
  1358  01DD  00E6               	movwf	_sCurrentState
  1359  01DE  3000               	movlw	0
  1360  01DF  00E7               	movwf	_sCurrentState+1
  1361  01E0  289F               	goto	l110
  1362  01E1                     l137:	
  1363                           ;OpticalSpeedSensor.c: 348:             default:
  1364                           
  1365                           
  1366                           ;OpticalSpeedSensor.c: 350:                 if ((((bFlags_1) & (0x01)) == 0)){
  1367  01E1  1864               	btfsc	_bFlags_1,0
  1368  01E2  29E4               	goto	u1591
  1369  01E3  29E5               	goto	u1590
  1370  01E4                     u1591:
  1371  01E4  29E9               	goto	l138
  1372  01E5                     u1590:
  1373  01E5                     l1994:
  1374                           
  1375                           ;OpticalSpeedSensor.c: 351:                     LATAbits.LATA5 = 0;
  1376  01E5  0022               	movlb	2	; select bank2
  1377  01E6  128C               	bcf	12,5	;volatile
  1378                           
  1379                           ;OpticalSpeedSensor.c: 352:                     ((bFlags_1) |= (0x01));
  1380  01E7  0020               	movlb	0	; select bank0
  1381  01E8  1464               	bsf	_bFlags_1,0
  1382  01E9                     l138:	
  1383                           ;OpticalSpeedSensor.c: 353:                 }
  1384                           
  1385                           
  1386                           ;OpticalSpeedSensor.c: 355:                 ((bFlags_1) |= (0x10));
  1387  01E9  1664               	bsf	_bFlags_1,4
  1388  01EA                     l1996:
  1389                           
  1390                           ;OpticalSpeedSensor.c: 356:                 ((bFlags_1) &= ((~(0x04))));
  1391  01EA  30FB               	movlw	251
  1392  01EB  00CC               	movwf	??_main
  1393  01EC  084C               	movf	??_main,w
  1394  01ED  05E4               	andwf	_bFlags_1,f
  1395  01EE                     l1998:
  1396  01EE                     l2000:
  1397  01EE                     l2014:
  1398                           
  1399                           ;OpticalSpeedSensor.c: 367:                 sCurrentState = 1;
  1400  01EE  3001               	movlw	1
  1401  01EF  00E6               	movwf	_sCurrentState
  1402  01F0  3000               	movlw	0
  1403  01F1  00E7               	movwf	_sCurrentState+1
  1404                           
  1405                           ;OpticalSpeedSensor.c: 368:             break;
  1406  01F2  289F               	goto	l110
  1407  01F3                     l2018:
  1408                           
  1409                           ; Switch on 2 bytes has been partitioned into a top level switch of size 1, and 1 sub-sw
      +                          itches
  1410                           ; Switch size 1, requested type "simple"
  1411                           ; Number of cases is 1, Range of values is 0 to 0
  1412                           ; switch strategies available:
  1413                           ; Name         Instructions Cycles
  1414                           ; simple_byte            4     3 (average)
  1415                           ; direct_byte            8     6 (fixed)
  1416                           ; jumptable            260     6 (fixed)
  1417                           ;	Chosen strategy is simple_byte
  1418  01F3  0020               	movlb	0	; select bank0
  1419  01F4  0867               	movf	_sCurrentState+1,w
  1420  01F5  3A00               	xorlw	0	; case 0
  1421  01F6  1903               	skipnz
  1422  01F7  29F9               	goto	l2056
  1423  01F8  29E1               	goto	l137
  1424  01F9                     l2056:
  1425                           
  1426                           ; Switch size 1, requested type "simple"
  1427                           ; Number of cases is 7, Range of values is 1 to 7
  1428                           ; switch strategies available:
  1429                           ; Name         Instructions Cycles
  1430                           ; simple_byte           22    12 (average)
  1431                           ; direct_byte           23     9 (fixed)
  1432                           ; jumptable            263     9 (fixed)
  1433                           ;	Chosen strategy is simple_byte
  1434  01F9  0866               	movf	_sCurrentState,w
  1435  01FA  3A01               	xorlw	1	; case 1
  1436  01FB  1903               	skipnz
  1437  01FC  28A1               	goto	l112
  1438  01FD  3A03               	xorlw	3	; case 2
  1439  01FE  1903               	skipnz
  1440  01FF  28CA               	goto	l117
  1441  0200  3A01               	xorlw	1	; case 3
  1442  0201  1903               	skipnz
  1443  0202  28EB               	goto	l119
  1444  0203  3A07               	xorlw	7	; case 4
  1445  0204  1903               	skipnz
  1446  0205  291A               	goto	l124
  1447  0206  3A01               	xorlw	1	; case 5
  1448  0207  1903               	skipnz
  1449  0208  299F               	goto	l128
  1450  0209  3A03               	xorlw	3	; case 6
  1451  020A  1903               	skipnz
  1452  020B  29B7               	goto	l131
  1453  020C  3A01               	xorlw	1	; case 7
  1454  020D  1903               	skipnz
  1455  020E  29CC               	goto	l134
  1456  020F  29E1               	goto	l137
  1457  0210  3180  283C         	ljmp	start
  1458  0212                     __end_of_main:
  1459                           
  1460                           	psect	text1
  1461  03C6                     __ptext1:	
  1462 ;; *************** function ___xxtofl *****************
  1463 ;; Defined at:
  1464 ;;		line 10 in file "C:\Program Files\Microchip\xc8\v2.20\pic\sources\c99\common\xxtofl.c"
  1465 ;; Parameters:    Size  Location     Type
  1466 ;;  sign            1    wreg     unsigned char 
  1467 ;;  val             4    1[COMMON] long 
  1468 ;; Auto vars:     Size  Location     Type
  1469 ;;  sign            1    0[BANK0 ] unsigned char 
  1470 ;;  arg             4    2[BANK0 ] unsigned long 
  1471 ;;  exp             1    1[BANK0 ] unsigned char 
  1472 ;; Return value:  Size  Location     Type
  1473 ;;                  4    1[COMMON] unsigned char 
  1474 ;; Registers used:
  1475 ;;		wreg, status,2, status,0
  1476 ;; Tracked objects:
  1477 ;;		On entry : 0/0
  1478 ;;		On exit  : 0/0
  1479 ;;		Unchanged: 0/0
  1480 ;; Data sizes:     COMMON   BANK0   BANK1   BANK2   BANK3   BANK4   BANK5   BANK6   BANK7   BANK8   BANK9  BANK10  BANK1
      +1  BANK12
  1481 ;;      Params:         4       0       0       0       0       0       0       0       0       0       0       0       
      +0       0
  1482 ;;      Locals:         0       6       0       0       0       0       0       0       0       0       0       0       
      +0       0
  1483 ;;      Temps:          4       0       0       0       0       0       0       0       0       0       0       0       
      +0       0
  1484 ;;      Totals:         8       6       0       0       0       0       0       0       0       0       0       0       
      +0       0
  1485 ;;Total ram usage:       14 bytes
  1486 ;; Hardware stack levels used:    1
  1487 ;; Hardware stack levels required when called:    1
  1488 ;; This function calls:
  1489 ;;		Nothing
  1490 ;; This function is called by:
  1491 ;;		_main
  1492 ;; This function uses a non-reentrant model
  1493 ;;
  1494                           
  1495                           
  1496                           ;psect for function ___xxtofl
  1497  03C6                     ___xxtofl:
  1498                           
  1499                           ;incstack = 0
  1500                           ; Regs used in ___xxtofl: [wreg+status,2+status,0]
  1501                           ;___xxtofl@sign stored from wreg
  1502  03C6  0020               	movlb	0	; select bank0
  1503  03C7  00A0               	movwf	___xxtofl@sign
  1504  03C8                     l1520:
  1505  03C8  0820               	movf	___xxtofl@sign,w
  1506  03C9  1903               	btfsc	3,2
  1507  03CA  2BCC               	goto	u1061
  1508  03CB  2BCD               	goto	u1060
  1509  03CC                     u1061:
  1510  03CC  2BE1               	goto	l1526
  1511  03CD                     u1060:
  1512  03CD                     l1522:
  1513  03CD  1FF4               	btfss	___xxtofl@val+3,7
  1514  03CE  2BD0               	goto	u1071
  1515  03CF  2BD1               	goto	u1070
  1516  03D0                     u1071:
  1517  03D0  2BE1               	goto	l1526
  1518  03D1                     u1070:
  1519  03D1                     l1524:
  1520  03D1  0971               	comf	___xxtofl@val,w
  1521  03D2  00A2               	movwf	___xxtofl@arg
  1522  03D3  0972               	comf	___xxtofl@val+1,w
  1523  03D4  00A3               	movwf	___xxtofl@arg+1
  1524  03D5  0973               	comf	___xxtofl@val+2,w
  1525  03D6  00A4               	movwf	___xxtofl@arg+2
  1526  03D7  0974               	comf	___xxtofl@val+3,w
  1527  03D8  00A5               	movwf	___xxtofl@arg+3
  1528  03D9  0AA2               	incf	___xxtofl@arg,f
  1529  03DA  1903               	skipnz
  1530  03DB  0AA3               	incf	___xxtofl@arg+1,f
  1531  03DC  1903               	skipnz
  1532  03DD  0AA4               	incf	___xxtofl@arg+2,f
  1533  03DE  1903               	skipnz
  1534  03DF  0AA5               	incf	___xxtofl@arg+3,f
  1535  03E0  2BE9               	goto	l805
  1536  03E1                     l1526:
  1537  03E1  0874               	movf	___xxtofl@val+3,w
  1538  03E2  00A5               	movwf	___xxtofl@arg+3
  1539  03E3  0873               	movf	___xxtofl@val+2,w
  1540  03E4  00A4               	movwf	___xxtofl@arg+2
  1541  03E5  0872               	movf	___xxtofl@val+1,w
  1542  03E6  00A3               	movwf	___xxtofl@arg+1
  1543  03E7  0871               	movf	___xxtofl@val,w
  1544  03E8  00A2               	movwf	___xxtofl@arg
  1545  03E9                     l805:
  1546  03E9  0874               	movf	___xxtofl@val+3,w
  1547  03EA  0473               	iorwf	___xxtofl@val+2,w
  1548  03EB  0472               	iorwf	___xxtofl@val+1,w
  1549  03EC  0471               	iorwf	___xxtofl@val,w
  1550  03ED  1D03               	skipz
  1551  03EE  2BF0               	goto	u1081
  1552  03EF  2BF1               	goto	u1080
  1553  03F0                     u1081:
  1554  03F0  2BFA               	goto	l1532
  1555  03F1                     u1080:
  1556  03F1                     l1528:
  1557  03F1  3000               	movlw	0
  1558  03F2  00F4               	movwf	?___xxtofl+3
  1559  03F3  3000               	movlw	0
  1560  03F4  00F3               	movwf	?___xxtofl+2
  1561  03F5  3000               	movlw	0
  1562  03F6  00F2               	movwf	?___xxtofl+1
  1563  03F7  3000               	movlw	0
  1564  03F8  00F1               	movwf	?___xxtofl
  1565  03F9  2C72               	goto	l807
  1566  03FA                     l1532:
  1567  03FA  3096               	movlw	150
  1568  03FB  00F5               	movwf	??___xxtofl
  1569  03FC  0875               	movf	??___xxtofl,w
  1570  03FD  00A1               	movwf	___xxtofl@exp
  1571  03FE  2C0A               	goto	l1536
  1572  03FF                     l1534:
  1573  03FF  3001               	movlw	1
  1574  0400  00F5               	movwf	??___xxtofl
  1575  0401  0875               	movf	??___xxtofl,w
  1576  0402  07A1               	addwf	___xxtofl@exp,f
  1577  0403  3001               	movlw	1
  1578  0404                     u1095:
  1579  0404  36A5               	lsrf	___xxtofl@arg+3,f
  1580  0405  0CA4               	rrf	___xxtofl@arg+2,f
  1581  0406  0CA3               	rrf	___xxtofl@arg+1,f
  1582  0407  0CA2               	rrf	___xxtofl@arg,f
  1583  0408  0B89               	decfsz	9,f
  1584  0409  2C04               	goto	u1095
  1585  040A                     l1536:
  1586  040A  30FE               	movlw	254
  1587  040B  0525               	andwf	___xxtofl@arg+3,w
  1588  040C  1D03               	btfss	3,2
  1589  040D  2C0F               	goto	u1101
  1590  040E  2C10               	goto	u1100
  1591  040F                     u1101:
  1592  040F  2BFF               	goto	l1534
  1593  0410                     u1100:
  1594  0410  2C24               	goto	l811
  1595  0411                     l1538:
  1596  0411  3001               	movlw	1
  1597  0412  00F5               	movwf	??___xxtofl
  1598  0413  0875               	movf	??___xxtofl,w
  1599  0414  07A1               	addwf	___xxtofl@exp,f
  1600  0415                     l1540:
  1601  0415  3001               	movlw	1
  1602  0416  07A2               	addwf	___xxtofl@arg,f
  1603  0417  3000               	movlw	0
  1604  0418  3DA3               	addwfc	___xxtofl@arg+1,f
  1605  0419  3000               	movlw	0
  1606  041A  3DA4               	addwfc	___xxtofl@arg+2,f
  1607  041B  3000               	movlw	0
  1608  041C  3DA5               	addwfc	___xxtofl@arg+3,f
  1609  041D                     l1542:
  1610  041D  3001               	movlw	1
  1611  041E                     u1115:
  1612  041E  36A5               	lsrf	___xxtofl@arg+3,f
  1613  041F  0CA4               	rrf	___xxtofl@arg+2,f
  1614  0420  0CA3               	rrf	___xxtofl@arg+1,f
  1615  0421  0CA2               	rrf	___xxtofl@arg,f
  1616  0422  0B89               	decfsz	9,f
  1617  0423  2C1E               	goto	u1115
  1618  0424                     l811:
  1619  0424  30FF               	movlw	255
  1620  0425  0525               	andwf	___xxtofl@arg+3,w
  1621  0426  1D03               	btfss	3,2
  1622  0427  2C29               	goto	u1121
  1623  0428  2C2A               	goto	u1120
  1624  0429                     u1121:
  1625  0429  2C11               	goto	l1538
  1626  042A                     u1120:
  1627  042A  2C34               	goto	l1546
  1628  042B                     l1544:
  1629  042B  3001               	movlw	1
  1630  042C  02A1               	subwf	___xxtofl@exp,f
  1631  042D  3001               	movlw	1
  1632  042E                     u1135:
  1633  042E  35A2               	lslf	___xxtofl@arg,f
  1634  042F  0DA3               	rlf	___xxtofl@arg+1,f
  1635  0430  0DA4               	rlf	___xxtofl@arg+2,f
  1636  0431  0DA5               	rlf	___xxtofl@arg+3,f
  1637  0432  0B89               	decfsz	9,f
  1638  0433  2C2E               	goto	u1135
  1639  0434                     l1546:
  1640  0434  1BA4               	btfsc	___xxtofl@arg+2,7
  1641  0435  2C37               	goto	u1141
  1642  0436  2C38               	goto	u1140
  1643  0437                     u1141:
  1644  0437  2C3E               	goto	l818
  1645  0438                     u1140:
  1646  0438                     l1548:
  1647  0438  3002               	movlw	2
  1648  0439  0221               	subwf	___xxtofl@exp,w
  1649  043A  1803               	skipnc
  1650  043B  2C3D               	goto	u1151
  1651  043C  2C3E               	goto	u1150
  1652  043D                     u1151:
  1653  043D  2C2B               	goto	l1544
  1654  043E                     u1150:
  1655  043E                     l818:
  1656  043E  1821               	btfsc	___xxtofl@exp,0
  1657  043F  2C41               	goto	u1161
  1658  0440  2C42               	goto	u1160
  1659  0441                     u1161:
  1660  0441  2C4A               	goto	l819
  1661  0442                     u1160:
  1662  0442                     l1550:
  1663  0442  30FF               	movlw	255
  1664  0443  05A2               	andwf	___xxtofl@arg,f
  1665  0444  30FF               	movlw	255
  1666  0445  05A3               	andwf	___xxtofl@arg+1,f
  1667  0446  307F               	movlw	127
  1668  0447  05A4               	andwf	___xxtofl@arg+2,f
  1669  0448  30FF               	movlw	255
  1670  0449  05A5               	andwf	___xxtofl@arg+3,f
  1671  044A                     l819:
  1672  044A  1003               	clrc
  1673  044B  0CA1               	rrf	___xxtofl@exp,f
  1674  044C                     l1552:
  1675  044C  0821               	movf	___xxtofl@exp,w
  1676  044D  00F5               	movwf	??___xxtofl
  1677  044E  01F6               	clrf	??___xxtofl+1
  1678  044F  01F7               	clrf	??___xxtofl+2
  1679  0450  01F8               	clrf	??___xxtofl+3
  1680  0451  3018               	movlw	24
  1681  0452                     u1175:
  1682  0452  35F5               	lslf	??___xxtofl,f
  1683  0453  0DF6               	rlf	??___xxtofl+1,f
  1684  0454  0DF7               	rlf	??___xxtofl+2,f
  1685  0455  0DF8               	rlf	??___xxtofl+3,f
  1686  0456                     u1170:
  1687  0456  0B89               	decfsz	9,f
  1688  0457  2C52               	goto	u1175
  1689  0458  0875               	movf	??___xxtofl,w
  1690  0459  04A2               	iorwf	___xxtofl@arg,f
  1691  045A  0876               	movf	??___xxtofl+1,w
  1692  045B  04A3               	iorwf	___xxtofl@arg+1,f
  1693  045C  0877               	movf	??___xxtofl+2,w
  1694  045D  04A4               	iorwf	___xxtofl@arg+2,f
  1695  045E  0878               	movf	??___xxtofl+3,w
  1696  045F  04A5               	iorwf	___xxtofl@arg+3,f
  1697  0460                     l1554:
  1698  0460  0820               	movf	___xxtofl@sign,w
  1699  0461  1903               	btfsc	3,2
  1700  0462  2C64               	goto	u1181
  1701  0463  2C65               	goto	u1180
  1702  0464                     u1181:
  1703  0464  2C6A               	goto	l1560
  1704  0465                     u1180:
  1705  0465                     l1556:
  1706  0465  1FF4               	btfss	___xxtofl@val+3,7
  1707  0466  2C68               	goto	u1191
  1708  0467  2C69               	goto	u1190
  1709  0468                     u1191:
  1710  0468  2C6A               	goto	l1560
  1711  0469                     u1190:
  1712  0469                     l1558:
  1713  0469  17A5               	bsf	___xxtofl@arg+3,7
  1714  046A                     l1560:
  1715  046A  0825               	movf	___xxtofl@arg+3,w
  1716  046B  00F4               	movwf	?___xxtofl+3
  1717  046C  0824               	movf	___xxtofl@arg+2,w
  1718  046D  00F3               	movwf	?___xxtofl+2
  1719  046E  0823               	movf	___xxtofl@arg+1,w
  1720  046F  00F2               	movwf	?___xxtofl+1
  1721  0470  0822               	movf	___xxtofl@arg,w
  1722  0471  00F1               	movwf	?___xxtofl
  1723  0472                     l807:
  1724  0472  0008               	return
  1725  0473                     __end_of___xxtofl:
  1726                           
  1727                           	psect	text2
  1728  0473                     __ptext2:	
  1729 ;; *************** function ___flge *****************
  1730 ;; Defined at:
  1731 ;;		line 4 in file "C:\Program Files\Microchip\xc8\v2.20\pic\sources\c99\common\flge.c"
  1732 ;; Parameters:    Size  Location     Type
  1733 ;;  ff1             4   32[BANK0 ] unsigned char 
  1734 ;;  ff2             4   36[BANK0 ] unsigned char 
  1735 ;; Auto vars:     Size  Location     Type
  1736 ;;		None
  1737 ;; Return value:  Size  Location     Type
  1738 ;;		None               void
  1739 ;; Registers used:
  1740 ;;		wreg, status,2, status,0
  1741 ;; Tracked objects:
  1742 ;;		On entry : 0/0
  1743 ;;		On exit  : 0/0
  1744 ;;		Unchanged: 0/0
  1745 ;; Data sizes:     COMMON   BANK0   BANK1   BANK2   BANK3   BANK4   BANK5   BANK6   BANK7   BANK8   BANK9  BANK10  BANK1
      +1  BANK12
  1746 ;;      Params:         0       8       0       0       0       0       0       0       0       0       0       0       
      +0       0
  1747 ;;      Locals:         0       0       0       0       0       0       0       0       0       0       0       0       
      +0       0
  1748 ;;      Temps:          0       4       0       0       0       0       0       0       0       0       0       0       
      +0       0
  1749 ;;      Totals:         0      12       0       0       0       0       0       0       0       0       0       0       
      +0       0
  1750 ;;Total ram usage:       12 bytes
  1751 ;; Hardware stack levels used:    1
  1752 ;; Hardware stack levels required when called:    1
  1753 ;; This function calls:
  1754 ;;		Nothing
  1755 ;; This function is called by:
  1756 ;;		_main
  1757 ;; This function uses a non-reentrant model
  1758 ;;
  1759                           
  1760                           
  1761                           ;psect for function ___flge
  1762  0473                     ___flge:
  1763  0473                     l1820:	
  1764                           ;incstack = 0
  1765                           ; Regs used in ___flge: [wreg+status,2+status,0]
  1766                           
  1767  0473  3000               	movlw	0
  1768  0474  0020               	movlb	0	; select bank0
  1769  0475  0540               	andwf	___flge@ff1,w
  1770  0476  00C8               	movwf	??___flge
  1771  0477  3000               	movlw	0
  1772  0478  0541               	andwf	___flge@ff1+1,w
  1773  0479  00C9               	movwf	??___flge+1
  1774  047A  3080               	movlw	128
  1775  047B  0542               	andwf	___flge@ff1+2,w
  1776  047C  00CA               	movwf	??___flge+2
  1777  047D  307F               	movlw	127
  1778  047E  0543               	andwf	___flge@ff1+3,w
  1779  047F  00CB               	movwf	??___flge+3
  1780  0480  084B               	movf	??___flge+3,w
  1781  0481  044A               	iorwf	??___flge+2,w
  1782  0482  0449               	iorwf	??___flge+1,w
  1783  0483  0448               	iorwf	??___flge,w
  1784  0484  1D03               	skipz
  1785  0485  2C87               	goto	u1401
  1786  0486  2C88               	goto	u1400
  1787  0487                     u1401:
  1788  0487  2C90               	goto	l542
  1789  0488                     u1400:
  1790  0488                     l1822:
  1791  0488  3000               	movlw	0
  1792  0489  00C3               	movwf	___flge@ff1+3
  1793  048A  3000               	movlw	0
  1794  048B  00C2               	movwf	___flge@ff1+2
  1795  048C  3000               	movlw	0
  1796  048D  00C1               	movwf	___flge@ff1+1
  1797  048E  3000               	movlw	0
  1798  048F  00C0               	movwf	___flge@ff1
  1799  0490                     l542:
  1800  0490  3000               	movlw	0
  1801  0491  0544               	andwf	___flge@ff2,w
  1802  0492  00C8               	movwf	??___flge
  1803  0493  3000               	movlw	0
  1804  0494  0545               	andwf	___flge@ff2+1,w
  1805  0495  00C9               	movwf	??___flge+1
  1806  0496  3080               	movlw	128
  1807  0497  0546               	andwf	___flge@ff2+2,w
  1808  0498  00CA               	movwf	??___flge+2
  1809  0499  307F               	movlw	127
  1810  049A  0547               	andwf	___flge@ff2+3,w
  1811  049B  00CB               	movwf	??___flge+3
  1812  049C  084B               	movf	??___flge+3,w
  1813  049D  044A               	iorwf	??___flge+2,w
  1814  049E  0449               	iorwf	??___flge+1,w
  1815  049F  0448               	iorwf	??___flge,w
  1816  04A0  1D03               	skipz
  1817  04A1  2CA3               	goto	u1411
  1818  04A2  2CA4               	goto	u1410
  1819  04A3                     u1411:
  1820  04A3  2CAC               	goto	l1826
  1821  04A4                     u1410:
  1822  04A4                     l1824:
  1823  04A4  3000               	movlw	0
  1824  04A5  00C7               	movwf	___flge@ff2+3
  1825  04A6  3000               	movlw	0
  1826  04A7  00C6               	movwf	___flge@ff2+2
  1827  04A8  3000               	movlw	0
  1828  04A9  00C5               	movwf	___flge@ff2+1
  1829  04AA  3000               	movlw	0
  1830  04AB  00C4               	movwf	___flge@ff2
  1831  04AC                     l1826:
  1832  04AC  1FC3               	btfss	___flge@ff1+3,7
  1833  04AD  2CAF               	goto	u1421
  1834  04AE  2CB0               	goto	u1420
  1835  04AF                     u1421:
  1836  04AF  2CC8               	goto	l1830
  1837  04B0                     u1420:
  1838  04B0                     l1828:
  1839  04B0  3000               	movlw	0
  1840  04B1  00C8               	movwf	??___flge
  1841  04B2  3000               	movlw	0
  1842  04B3  00C9               	movwf	??___flge+1
  1843  04B4  3000               	movlw	0
  1844  04B5  00CA               	movwf	??___flge+2
  1845  04B6  3080               	movlw	128
  1846  04B7  00CB               	movwf	??___flge+3
  1847  04B8  0840               	movf	___flge@ff1,w
  1848  04B9  02C8               	subwf	??___flge,f
  1849  04BA  0841               	movf	___flge@ff1+1,w
  1850  04BB  3BC9               	subwfb	??___flge+1,f
  1851  04BC  0842               	movf	___flge@ff1+2,w
  1852  04BD  3BCA               	subwfb	??___flge+2,f
  1853  04BE  0843               	movf	___flge@ff1+3,w
  1854  04BF  3BCB               	subwfb	??___flge+3,f
  1855  04C0  084B               	movf	??___flge+3,w
  1856  04C1  00C3               	movwf	___flge@ff1+3
  1857  04C2  084A               	movf	??___flge+2,w
  1858  04C3  00C2               	movwf	___flge@ff1+2
  1859  04C4  0849               	movf	??___flge+1,w
  1860  04C5  00C1               	movwf	___flge@ff1+1
  1861  04C6  0848               	movf	??___flge,w
  1862  04C7  00C0               	movwf	___flge@ff1
  1863  04C8                     l1830:
  1864  04C8  1FC7               	btfss	___flge@ff2+3,7
  1865  04C9  2CCB               	goto	u1431
  1866  04CA  2CCC               	goto	u1430
  1867  04CB                     u1431:
  1868  04CB  2CE4               	goto	l545
  1869  04CC                     u1430:
  1870  04CC                     l1832:
  1871  04CC  3000               	movlw	0
  1872  04CD  00C8               	movwf	??___flge
  1873  04CE  3000               	movlw	0
  1874  04CF  00C9               	movwf	??___flge+1
  1875  04D0  3000               	movlw	0
  1876  04D1  00CA               	movwf	??___flge+2
  1877  04D2  3080               	movlw	128
  1878  04D3  00CB               	movwf	??___flge+3
  1879  04D4  0844               	movf	___flge@ff2,w
  1880  04D5  02C8               	subwf	??___flge,f
  1881  04D6  0845               	movf	___flge@ff2+1,w
  1882  04D7  3BC9               	subwfb	??___flge+1,f
  1883  04D8  0846               	movf	___flge@ff2+2,w
  1884  04D9  3BCA               	subwfb	??___flge+2,f
  1885  04DA  0847               	movf	___flge@ff2+3,w
  1886  04DB  3BCB               	subwfb	??___flge+3,f
  1887  04DC  084B               	movf	??___flge+3,w
  1888  04DD  00C7               	movwf	___flge@ff2+3
  1889  04DE  084A               	movf	??___flge+2,w
  1890  04DF  00C6               	movwf	___flge@ff2+2
  1891  04E0  0849               	movf	??___flge+1,w
  1892  04E1  00C5               	movwf	___flge@ff2+1
  1893  04E2  0848               	movf	??___flge,w
  1894  04E3  00C4               	movwf	___flge@ff2
  1895  04E4                     l545:
  1896  04E4  3080               	movlw	128
  1897  04E5  06C3               	xorwf	___flge@ff1+3,f
  1898  04E6  3080               	movlw	128
  1899  04E7  06C7               	xorwf	___flge@ff2+3,f
  1900  04E8  0847               	movf	___flge@ff2+3,w
  1901  04E9  0243               	subwf	___flge@ff1+3,w
  1902  04EA  1D03               	skipz
  1903  04EB  2CF6               	goto	u1445
  1904  04EC  0846               	movf	___flge@ff2+2,w
  1905  04ED  0242               	subwf	___flge@ff1+2,w
  1906  04EE  1D03               	skipz
  1907  04EF  2CF6               	goto	u1445
  1908  04F0  0845               	movf	___flge@ff2+1,w
  1909  04F1  0241               	subwf	___flge@ff1+1,w
  1910  04F2  1D03               	skipz
  1911  04F3  2CF6               	goto	u1445
  1912  04F4  0844               	movf	___flge@ff2,w
  1913  04F5  0240               	subwf	___flge@ff1,w
  1914  04F6                     u1445:
  1915  04F6  1803               	skipnc
  1916  04F7  2CF9               	goto	u1441
  1917  04F8  2CFA               	goto	u1440
  1918  04F9                     u1441:
  1919  04F9  2CFC               	goto	l1836
  1920  04FA                     u1440:
  1921  04FA                     l1834:
  1922  04FA  1003               	clrc
  1923  04FB  2CFD               	goto	l550
  1924  04FC                     l1836:
  1925  04FC  1403               	setc
  1926  04FD                     l550:
  1927  04FD  0008               	return
  1928  04FE                     __end_of___flge:
  1929                           
  1930                           	psect	text3
  1931  0212                     __ptext3:	
  1932 ;; *************** function ___fldiv *****************
  1933 ;; Defined at:
  1934 ;;		line 8 in file "C:\Program Files\Microchip\xc8\v2.20\pic\sources\c99\common\sprcdiv.c"
  1935 ;; Parameters:    Size  Location     Type
  1936 ;;  a               4    6[BANK0 ] unsigned char 
  1937 ;;  b               4   10[BANK0 ] unsigned char 
  1938 ;; Auto vars:     Size  Location     Type
  1939 ;;  grs             4   26[BANK0 ] unsigned long 
  1940 ;;  rem             4   19[BANK0 ] unsigned long 
  1941 ;;  new_exp         2   24[BANK0 ] int 
  1942 ;;  aexp            1   31[BANK0 ] unsigned char 
  1943 ;;  bexp            1   30[BANK0 ] unsigned char 
  1944 ;;  sign            1   23[BANK0 ] unsigned char 
  1945 ;; Return value:  Size  Location     Type
  1946 ;;                  4    6[BANK0 ] unsigned char 
  1947 ;; Registers used:
  1948 ;;		wreg, status,2, status,0
  1949 ;; Tracked objects:
  1950 ;;		On entry : 0/0
  1951 ;;		On exit  : 0/0
  1952 ;;		Unchanged: 0/0
  1953 ;; Data sizes:     COMMON   BANK0   BANK1   BANK2   BANK3   BANK4   BANK5   BANK6   BANK7   BANK8   BANK9  BANK10  BANK1
      +1  BANK12
  1954 ;;      Params:         0       8       0       0       0       0       0       0       0       0       0       0       
      +0       0
  1955 ;;      Locals:         0      13       0       0       0       0       0       0       0       0       0       0       
      +0       0
  1956 ;;      Temps:          0       5       0       0       0       0       0       0       0       0       0       0       
      +0       0
  1957 ;;      Totals:         0      26       0       0       0       0       0       0       0       0       0       0       
      +0       0
  1958 ;;Total ram usage:       26 bytes
  1959 ;; Hardware stack levels used:    1
  1960 ;; Hardware stack levels required when called:    1
  1961 ;; This function calls:
  1962 ;;		Nothing
  1963 ;; This function is called by:
  1964 ;;		_main
  1965 ;; This function uses a non-reentrant model
  1966 ;;
  1967                           
  1968                           
  1969                           ;psect for function ___fldiv
  1970  0212                     ___fldiv:
  1971  0212                     l1380:	
  1972                           ;incstack = 0
  1973                           ; Regs used in ___fldiv: [wreg+status,2+status,0]
  1974                           
  1975  0212  0020               	movlb	0	; select bank0
  1976  0213  082D               	movf	___fldiv@b+3,w
  1977  0214  3980               	andlw	128
  1978  0215  00AE               	movwf	??___fldiv
  1979  0216  082E               	movf	??___fldiv,w
  1980  0217  00B7               	movwf	___fldiv@sign
  1981  0218                     l1382:
  1982  0218  352D               	lslf	___fldiv@b+3,w
  1983  0219  00AE               	movwf	??___fldiv
  1984  021A  082E               	movf	??___fldiv,w
  1985  021B  00BE               	movwf	___fldiv@bexp
  1986  021C                     l1384:
  1987  021C  1FAC               	btfss	___fldiv@b+2,7
  1988  021D  2A1F               	goto	u771
  1989  021E  2A20               	goto	u770
  1990  021F                     u771:
  1991  021F  2A21               	goto	l1388
  1992  0220                     u770:
  1993  0220                     l1386:
  1994  0220  143E               	bsf	___fldiv@bexp,0
  1995  0221                     l1388:
  1996  0221  083E               	movf	___fldiv@bexp,w
  1997  0222  1903               	btfsc	3,2
  1998  0223  2A25               	goto	u781
  1999  0224  2A26               	goto	u780
  2000  0225                     u781:
  2001  0225  2A36               	goto	l1398
  2002  0226                     u780:
  2003  0226                     l1390:
  2004  0226  0A3E               	incf	___fldiv@bexp,w
  2005  0227  1D03               	btfss	3,2
  2006  0228  2A2A               	goto	u791
  2007  0229  2A2B               	goto	u790
  2008  022A                     u791:
  2009  022A  2A33               	goto	l1394
  2010  022B                     u790:
  2011  022B                     l1392:
  2012  022B  3000               	movlw	0
  2013  022C  00AD               	movwf	___fldiv@b+3
  2014  022D  3000               	movlw	0
  2015  022E  00AC               	movwf	___fldiv@b+2
  2016  022F  3000               	movlw	0
  2017  0230  00AB               	movwf	___fldiv@b+1
  2018  0231  3000               	movlw	0
  2019  0232  00AA               	movwf	___fldiv@b
  2020  0233                     l1394:
  2021  0233  17AC               	bsf	___fldiv@b+2,7
  2022  0234                     l1396:
  2023  0234  01AD               	clrf	___fldiv@b+3
  2024  0235  2A3E               	goto	l1400
  2025  0236                     l1398:
  2026  0236  3000               	movlw	0
  2027  0237  00AD               	movwf	___fldiv@b+3
  2028  0238  3000               	movlw	0
  2029  0239  00AC               	movwf	___fldiv@b+2
  2030  023A  3000               	movlw	0
  2031  023B  00AB               	movwf	___fldiv@b+1
  2032  023C  3000               	movlw	0
  2033  023D  00AA               	movwf	___fldiv@b
  2034  023E                     l1400:
  2035  023E  0829               	movf	___fldiv@a+3,w
  2036  023F  3980               	andlw	128
  2037  0240  00AE               	movwf	??___fldiv
  2038  0241  082E               	movf	??___fldiv,w
  2039  0242  06B7               	xorwf	___fldiv@sign,f
  2040  0243                     l1402:
  2041  0243  3529               	lslf	___fldiv@a+3,w
  2042  0244  00AE               	movwf	??___fldiv
  2043  0245  082E               	movf	??___fldiv,w
  2044  0246  00BF               	movwf	___fldiv@aexp
  2045  0247                     l1404:
  2046  0247  1FA8               	btfss	___fldiv@a+2,7
  2047  0248  2A4A               	goto	u801
  2048  0249  2A4B               	goto	u800
  2049  024A                     u801:
  2050  024A  2A4C               	goto	l1408
  2051  024B                     u800:
  2052  024B                     l1406:
  2053  024B  143F               	bsf	___fldiv@aexp,0
  2054  024C                     l1408:
  2055  024C  083F               	movf	___fldiv@aexp,w
  2056  024D  1903               	btfsc	3,2
  2057  024E  2A50               	goto	u811
  2058  024F  2A51               	goto	u810
  2059  0250                     u811:
  2060  0250  2A61               	goto	l1418
  2061  0251                     u810:
  2062  0251                     l1410:
  2063  0251  0A3F               	incf	___fldiv@aexp,w
  2064  0252  1D03               	btfss	3,2
  2065  0253  2A55               	goto	u821
  2066  0254  2A56               	goto	u820
  2067  0255                     u821:
  2068  0255  2A5E               	goto	l1414
  2069  0256                     u820:
  2070  0256                     l1412:
  2071  0256  3000               	movlw	0
  2072  0257  00A9               	movwf	___fldiv@a+3
  2073  0258  3000               	movlw	0
  2074  0259  00A8               	movwf	___fldiv@a+2
  2075  025A  3000               	movlw	0
  2076  025B  00A7               	movwf	___fldiv@a+1
  2077  025C  3000               	movlw	0
  2078  025D  00A6               	movwf	___fldiv@a
  2079  025E                     l1414:
  2080  025E  17A8               	bsf	___fldiv@a+2,7
  2081  025F                     l1416:
  2082  025F  01A9               	clrf	___fldiv@a+3
  2083  0260  2A69               	goto	l721
  2084  0261                     l1418:
  2085  0261  3000               	movlw	0
  2086  0262  00A9               	movwf	___fldiv@a+3
  2087  0263  3000               	movlw	0
  2088  0264  00A8               	movwf	___fldiv@a+2
  2089  0265  3000               	movlw	0
  2090  0266  00A7               	movwf	___fldiv@a+1
  2091  0267  3000               	movlw	0
  2092  0268  00A6               	movwf	___fldiv@a
  2093  0269                     l721:
  2094  0269  0829               	movf	___fldiv@a+3,w
  2095  026A  0428               	iorwf	___fldiv@a+2,w
  2096  026B  0427               	iorwf	___fldiv@a+1,w
  2097  026C  0426               	iorwf	___fldiv@a,w
  2098  026D  1D03               	skipz
  2099  026E  2A70               	goto	u831
  2100  026F  2A71               	goto	u830
  2101  0270                     u831:
  2102  0270  2A8A               	goto	l1428
  2103  0271                     u830:
  2104  0271                     l1420:
  2105  0271  3000               	movlw	0
  2106  0272  00AD               	movwf	___fldiv@b+3
  2107  0273  3000               	movlw	0
  2108  0274  00AC               	movwf	___fldiv@b+2
  2109  0275  3000               	movlw	0
  2110  0276  00AB               	movwf	___fldiv@b+1
  2111  0277  3000               	movlw	0
  2112  0278  00AA               	movwf	___fldiv@b
  2113  0279  3080               	movlw	128
  2114  027A  04AC               	iorwf	___fldiv@b+2,f
  2115  027B  307F               	movlw	127
  2116  027C  04AD               	iorwf	___fldiv@b+3,f
  2117  027D                     l1422:
  2118  027D  0837               	movf	___fldiv@sign,w
  2119  027E  00AE               	movwf	??___fldiv
  2120  027F  082E               	movf	??___fldiv,w
  2121  0280  04AD               	iorwf	___fldiv@b+3,f
  2122  0281                     l1424:
  2123  0281  082D               	movf	___fldiv@b+3,w
  2124  0282  00A9               	movwf	?___fldiv+3
  2125  0283  082C               	movf	___fldiv@b+2,w
  2126  0284  00A8               	movwf	?___fldiv+2
  2127  0285  082B               	movf	___fldiv@b+1,w
  2128  0286  00A7               	movwf	?___fldiv+1
  2129  0287  082A               	movf	___fldiv@b,w
  2130  0288  00A6               	movwf	?___fldiv
  2131  0289  2BC5               	goto	l723
  2132  028A                     l1428:
  2133  028A  083E               	movf	___fldiv@bexp,w
  2134  028B  1D03               	btfss	3,2
  2135  028C  2A8E               	goto	u841
  2136  028D  2A8F               	goto	u840
  2137  028E                     u841:
  2138  028E  2A98               	goto	l1434
  2139  028F                     u840:
  2140  028F                     l1430:
  2141  028F  3000               	movlw	0
  2142  0290  00A9               	movwf	?___fldiv+3
  2143  0291  3000               	movlw	0
  2144  0292  00A8               	movwf	?___fldiv+2
  2145  0293  3000               	movlw	0
  2146  0294  00A7               	movwf	?___fldiv+1
  2147  0295  3000               	movlw	0
  2148  0296  00A6               	movwf	?___fldiv
  2149  0297  2BC5               	goto	l723
  2150  0298                     l1434:
  2151  0298  083E               	movf	___fldiv@bexp,w
  2152  0299  00AE               	movwf	??___fldiv
  2153  029A  01AF               	clrf	??___fldiv+1
  2154  029B  082F               	movf	??___fldiv+1,w
  2155  029C  00B1               	movwf	??___fldiv+3
  2156  029D  083F               	movf	___fldiv@aexp,w
  2157  029E  022E               	subwf	??___fldiv,w
  2158  029F  00B0               	movwf	??___fldiv+2
  2159  02A0  1C03               	skipc
  2160  02A1  03B1               	decf	??___fldiv+3,f
  2161  02A2  0830               	movf	??___fldiv+2,w
  2162  02A3  3E7F               	addlw	127
  2163  02A4  00B8               	movwf	___fldiv@new_exp
  2164  02A5  3000               	movlw	0
  2165  02A6  3D31               	addwfc	??___fldiv+3,w
  2166  02A7  00B9               	movwf	___fldiv@new_exp+1
  2167  02A8                     l1436:
  2168  02A8  082D               	movf	___fldiv@b+3,w
  2169  02A9  00B6               	movwf	___fldiv@rem+3
  2170  02AA  082C               	movf	___fldiv@b+2,w
  2171  02AB  00B5               	movwf	___fldiv@rem+2
  2172  02AC  082B               	movf	___fldiv@b+1,w
  2173  02AD  00B4               	movwf	___fldiv@rem+1
  2174  02AE  082A               	movf	___fldiv@b,w
  2175  02AF  00B3               	movwf	___fldiv@rem
  2176  02B0                     l1438:
  2177  02B0  3000               	movlw	0
  2178  02B1  00AD               	movwf	___fldiv@b+3
  2179  02B2  3000               	movlw	0
  2180  02B3  00AC               	movwf	___fldiv@b+2
  2181  02B4  3000               	movlw	0
  2182  02B5  00AB               	movwf	___fldiv@b+1
  2183  02B6  3000               	movlw	0
  2184  02B7  00AA               	movwf	___fldiv@b
  2185  02B8                     l1440:
  2186  02B8  3000               	movlw	0
  2187  02B9  00BD               	movwf	___fldiv@grs+3
  2188  02BA  3000               	movlw	0
  2189  02BB  00BC               	movwf	___fldiv@grs+2
  2190  02BC  3000               	movlw	0
  2191  02BD  00BB               	movwf	___fldiv@grs+1
  2192  02BE  3000               	movlw	0
  2193  02BF  00BA               	movwf	___fldiv@grs
  2194  02C0                     l1442:
  2195  02C0  01BF               	clrf	___fldiv@aexp
  2196  02C1  2B00               	goto	l1462
  2197  02C2                     l1444:
  2198  02C2  083F               	movf	___fldiv@aexp,w
  2199  02C3  1903               	btfsc	3,2
  2200  02C4  2AC6               	goto	u851
  2201  02C5  2AC7               	goto	u850
  2202  02C6                     u851:
  2203  02C6  2AE1               	goto	l1454
  2204  02C7                     u850:
  2205  02C7                     l1446:
  2206  02C7  3001               	movlw	1
  2207  02C8                     u865:
  2208  02C8  35B3               	lslf	___fldiv@rem,f
  2209  02C9  0DB4               	rlf	___fldiv@rem+1,f
  2210  02CA  0DB5               	rlf	___fldiv@rem+2,f
  2211  02CB  0DB6               	rlf	___fldiv@rem+3,f
  2212  02CC  0B89               	decfsz	9,f
  2213  02CD  2AC8               	goto	u865
  2214  02CE  3001               	movlw	1
  2215  02CF                     u875:
  2216  02CF  35AA               	lslf	___fldiv@b,f
  2217  02D0  0DAB               	rlf	___fldiv@b+1,f
  2218  02D1  0DAC               	rlf	___fldiv@b+2,f
  2219  02D2  0DAD               	rlf	___fldiv@b+3,f
  2220  02D3  0B89               	decfsz	9,f
  2221  02D4  2ACF               	goto	u875
  2222  02D5                     l1448:
  2223  02D5  1FBD               	btfss	___fldiv@grs+3,7
  2224  02D6  2AD8               	goto	u881
  2225  02D7  2AD9               	goto	u880
  2226  02D8                     u881:
  2227  02D8  2ADA               	goto	l1452
  2228  02D9                     u880:
  2229  02D9                     l1450:
  2230  02D9  142A               	bsf	___fldiv@b,0
  2231  02DA                     l1452:
  2232  02DA  3001               	movlw	1
  2233  02DB                     u895:
  2234  02DB  35BA               	lslf	___fldiv@grs,f
  2235  02DC  0DBB               	rlf	___fldiv@grs+1,f
  2236  02DD  0DBC               	rlf	___fldiv@grs+2,f
  2237  02DE  0DBD               	rlf	___fldiv@grs+3,f
  2238  02DF  0B89               	decfsz	9,f
  2239  02E0  2ADB               	goto	u895
  2240  02E1                     l1454:
  2241  02E1  0829               	movf	___fldiv@a+3,w
  2242  02E2  0236               	subwf	___fldiv@rem+3,w
  2243  02E3  1D03               	skipz
  2244  02E4  2AEF               	goto	u905
  2245  02E5  0828               	movf	___fldiv@a+2,w
  2246  02E6  0235               	subwf	___fldiv@rem+2,w
  2247  02E7  1D03               	skipz
  2248  02E8  2AEF               	goto	u905
  2249  02E9  0827               	movf	___fldiv@a+1,w
  2250  02EA  0234               	subwf	___fldiv@rem+1,w
  2251  02EB  1D03               	skipz
  2252  02EC  2AEF               	goto	u905
  2253  02ED  0826               	movf	___fldiv@a,w
  2254  02EE  0233               	subwf	___fldiv@rem,w
  2255  02EF                     u905:
  2256  02EF  1C03               	skipc
  2257  02F0  2AF2               	goto	u901
  2258  02F1  2AF3               	goto	u900
  2259  02F2                     u901:
  2260  02F2  2AFC               	goto	l1460
  2261  02F3                     u900:
  2262  02F3                     l1456:
  2263  02F3  173D               	bsf	___fldiv@grs+3,6
  2264  02F4                     l1458:
  2265  02F4  0826               	movf	___fldiv@a,w
  2266  02F5  02B3               	subwf	___fldiv@rem,f
  2267  02F6  0827               	movf	___fldiv@a+1,w
  2268  02F7  3BB4               	subwfb	___fldiv@rem+1,f
  2269  02F8  0828               	movf	___fldiv@a+2,w
  2270  02F9  3BB5               	subwfb	___fldiv@rem+2,f
  2271  02FA  0829               	movf	___fldiv@a+3,w
  2272  02FB  3BB6               	subwfb	___fldiv@rem+3,f
  2273  02FC                     l1460:
  2274  02FC  3001               	movlw	1
  2275  02FD  00AE               	movwf	??___fldiv
  2276  02FE  082E               	movf	??___fldiv,w
  2277  02FF  07BF               	addwf	___fldiv@aexp,f
  2278  0300                     l1462:
  2279  0300  301A               	movlw	26
  2280  0301  023F               	subwf	___fldiv@aexp,w
  2281  0302  1C03               	skipc
  2282  0303  2B05               	goto	u911
  2283  0304  2B06               	goto	u910
  2284  0305                     u911:
  2285  0305  2AC2               	goto	l1444
  2286  0306                     u910:
  2287  0306                     l1464:
  2288  0306  0836               	movf	___fldiv@rem+3,w
  2289  0307  0435               	iorwf	___fldiv@rem+2,w
  2290  0308  0434               	iorwf	___fldiv@rem+1,w
  2291  0309  0433               	iorwf	___fldiv@rem,w
  2292  030A  1903               	skipnz
  2293  030B  2B0D               	goto	u921
  2294  030C  2B0E               	goto	u920
  2295  030D                     u921:
  2296  030D  2B27               	goto	l1478
  2297  030E                     u920:
  2298  030E                     l1466:
  2299  030E  143A               	bsf	___fldiv@grs,0
  2300  030F  2B27               	goto	l1478
  2301  0310                     l1468:
  2302  0310  3001               	movlw	1
  2303  0311                     u935:
  2304  0311  35AA               	lslf	___fldiv@b,f
  2305  0312  0DAB               	rlf	___fldiv@b+1,f
  2306  0313  0DAC               	rlf	___fldiv@b+2,f
  2307  0314  0DAD               	rlf	___fldiv@b+3,f
  2308  0315  0B89               	decfsz	9,f
  2309  0316  2B11               	goto	u935
  2310  0317                     l1470:
  2311  0317  1FBD               	btfss	___fldiv@grs+3,7
  2312  0318  2B1A               	goto	u941
  2313  0319  2B1B               	goto	u940
  2314  031A                     u941:
  2315  031A  2B1C               	goto	l1474
  2316  031B                     u940:
  2317  031B                     l1472:
  2318  031B  142A               	bsf	___fldiv@b,0
  2319  031C                     l1474:
  2320  031C  3001               	movlw	1
  2321  031D                     u955:
  2322  031D  35BA               	lslf	___fldiv@grs,f
  2323  031E  0DBB               	rlf	___fldiv@grs+1,f
  2324  031F  0DBC               	rlf	___fldiv@grs+2,f
  2325  0320  0DBD               	rlf	___fldiv@grs+3,f
  2326  0321  0B89               	decfsz	9,f
  2327  0322  2B1D               	goto	u955
  2328  0323                     l1476:
  2329  0323  30FF               	movlw	255
  2330  0324  07B8               	addwf	___fldiv@new_exp,f
  2331  0325  30FF               	movlw	255
  2332  0326  3DB9               	addwfc	___fldiv@new_exp+1,f
  2333  0327                     l1478:
  2334  0327  1FAC               	btfss	___fldiv@b+2,7
  2335  0328  2B2A               	goto	u961
  2336  0329  2B2B               	goto	u960
  2337  032A                     u961:
  2338  032A  2B10               	goto	l1468
  2339  032B                     u960:
  2340  032B                     l1480:
  2341  032B  01BF               	clrf	___fldiv@aexp
  2342  032C                     l1482:
  2343  032C  1FBD               	btfss	___fldiv@grs+3,7
  2344  032D  2B2F               	goto	u971
  2345  032E  2B30               	goto	u970
  2346  032F                     u971:
  2347  032F  2B4C               	goto	l1490
  2348  0330                     u970:
  2349  0330                     l1484:
  2350  0330  30FF               	movlw	255
  2351  0331  053A               	andwf	___fldiv@grs,w
  2352  0332  00AE               	movwf	??___fldiv
  2353  0333  30FF               	movlw	255
  2354  0334  053B               	andwf	___fldiv@grs+1,w
  2355  0335  00AF               	movwf	??___fldiv+1
  2356  0336  30FF               	movlw	255
  2357  0337  053C               	andwf	___fldiv@grs+2,w
  2358  0338  00B0               	movwf	??___fldiv+2
  2359  0339  307F               	movlw	127
  2360  033A  053D               	andwf	___fldiv@grs+3,w
  2361  033B  00B1               	movwf	??___fldiv+3
  2362  033C  0831               	movf	??___fldiv+3,w
  2363  033D  0430               	iorwf	??___fldiv+2,w
  2364  033E  042F               	iorwf	??___fldiv+1,w
  2365  033F  042E               	iorwf	??___fldiv,w
  2366  0340  1903               	skipnz
  2367  0341  2B43               	goto	u981
  2368  0342  2B44               	goto	u980
  2369  0343                     u981:
  2370  0343  2B47               	goto	l737
  2371  0344                     u980:
  2372  0344                     l1486:
  2373  0344  01BF               	clrf	___fldiv@aexp
  2374  0345  0ABF               	incf	___fldiv@aexp,f
  2375  0346  2B4C               	goto	l1490
  2376  0347                     l737:
  2377  0347  1C2A               	btfss	___fldiv@b,0
  2378  0348  2B4A               	goto	u991
  2379  0349  2B4B               	goto	u990
  2380  034A                     u991:
  2381  034A  2B4C               	goto	l1490
  2382  034B                     u990:
  2383  034B  2B44               	goto	l1486
  2384  034C                     l1490:
  2385  034C  083F               	movf	___fldiv@aexp,w
  2386  034D  1903               	btfsc	3,2
  2387  034E  2B50               	goto	u1001
  2388  034F  2B51               	goto	u1000
  2389  0350                     u1001:
  2390  0350  2B79               	goto	l1500
  2391  0351                     u1000:
  2392  0351                     l1492:
  2393  0351  3001               	movlw	1
  2394  0352  07AA               	addwf	___fldiv@b,f
  2395  0353  3000               	movlw	0
  2396  0354  3DAB               	addwfc	___fldiv@b+1,f
  2397  0355  3000               	movlw	0
  2398  0356  3DAC               	addwfc	___fldiv@b+2,f
  2399  0357  3000               	movlw	0
  2400  0358  3DAD               	addwfc	___fldiv@b+3,f
  2401  0359                     l1494:
  2402  0359  1C2D               	btfss	___fldiv@b+3,0
  2403  035A  2B5C               	goto	u1011
  2404  035B  2B5D               	goto	u1010
  2405  035C                     u1011:
  2406  035C  2B79               	goto	l1500
  2407  035D                     u1010:
  2408  035D                     l1496:
  2409  035D  082A               	movf	___fldiv@b,w
  2410  035E  00AE               	movwf	??___fldiv
  2411  035F  082B               	movf	___fldiv@b+1,w
  2412  0360  00AF               	movwf	??___fldiv+1
  2413  0361  082C               	movf	___fldiv@b+2,w
  2414  0362  00B0               	movwf	??___fldiv+2
  2415  0363  082D               	movf	___fldiv@b+3,w
  2416  0364  00B1               	movwf	??___fldiv+3
  2417  0365  3001               	movlw	1
  2418  0366  00B2               	movwf	??___fldiv+4
  2419  0367                     u1025:
  2420  0367  37B1               	asrf	??___fldiv+3,f
  2421  0368  0CB0               	rrf	??___fldiv+2,f
  2422  0369  0CAF               	rrf	??___fldiv+1,f
  2423  036A  0CAE               	rrf	??___fldiv,f
  2424  036B                     u1020:
  2425  036B  0BB2               	decfsz	??___fldiv+4,f
  2426  036C  2B67               	goto	u1025
  2427  036D  0831               	movf	??___fldiv+3,w
  2428  036E  00AD               	movwf	___fldiv@b+3
  2429  036F  0830               	movf	??___fldiv+2,w
  2430  0370  00AC               	movwf	___fldiv@b+2
  2431  0371  082F               	movf	??___fldiv+1,w
  2432  0372  00AB               	movwf	___fldiv@b+1
  2433  0373  082E               	movf	??___fldiv,w
  2434  0374  00AA               	movwf	___fldiv@b
  2435  0375                     l1498:
  2436  0375  3001               	movlw	1
  2437  0376  07B8               	addwf	___fldiv@new_exp,f
  2438  0377  3000               	movlw	0
  2439  0378  3DB9               	addwfc	___fldiv@new_exp+1,f
  2440  0379                     l1500:
  2441  0379  0839               	movf	___fldiv@new_exp+1,w
  2442  037A  3A80               	xorlw	128
  2443  037B  00AE               	movwf	??___fldiv
  2444  037C  3080               	movlw	128
  2445  037D  022E               	subwf	??___fldiv,w
  2446  037E  1D03               	skipz
  2447  037F  2B82               	goto	u1035
  2448  0380  30FF               	movlw	255
  2449  0381  0238               	subwf	___fldiv@new_exp,w
  2450  0382                     u1035:
  2451  0382  1C03               	skipc
  2452  0383  2B85               	goto	u1031
  2453  0384  2B86               	goto	u1030
  2454  0385                     u1031:
  2455  0385  2B93               	goto	l742
  2456  0386                     u1030:
  2457  0386                     l1502:
  2458  0386  30FF               	movlw	255
  2459  0387  0020               	movlb	0	; select bank0
  2460  0388  00B8               	movwf	___fldiv@new_exp
  2461  0389  3000               	movlw	0
  2462  038A  00B9               	movwf	___fldiv@new_exp+1
  2463  038B  3000               	movlw	0
  2464  038C  00AD               	movwf	___fldiv@b+3
  2465  038D  3000               	movlw	0
  2466  038E  00AC               	movwf	___fldiv@b+2
  2467  038F  3000               	movlw	0
  2468  0390  00AB               	movwf	___fldiv@b+1
  2469  0391  3000               	movlw	0
  2470  0392  00AA               	movwf	___fldiv@b
  2471  0393                     l742:
  2472  0393  0020               	movlb	0	; select bank0
  2473  0394  0839               	movf	___fldiv@new_exp+1,w
  2474  0395  3A80               	xorlw	128
  2475  0396  00AE               	movwf	??___fldiv
  2476  0397  3080               	movlw	128
  2477  0398  022E               	subwf	??___fldiv,w
  2478  0399  1D03               	skipz
  2479  039A  2B9D               	goto	u1045
  2480  039B  3001               	movlw	1
  2481  039C  0238               	subwf	___fldiv@new_exp,w
  2482  039D                     u1045:
  2483  039D  1803               	skipnc
  2484  039E  2BA0               	goto	u1041
  2485  039F  2BA1               	goto	u1040
  2486  03A0                     u1041:
  2487  03A0  2BAD               	goto	l743
  2488  03A1                     u1040:
  2489  03A1                     l1504:
  2490  03A1  0020               	movlb	0	; select bank0
  2491  03A2  01B8               	clrf	___fldiv@new_exp
  2492  03A3  01B9               	clrf	___fldiv@new_exp+1
  2493  03A4                     l1506:
  2494  03A4  3000               	movlw	0
  2495  03A5  00AD               	movwf	___fldiv@b+3
  2496  03A6  3000               	movlw	0
  2497  03A7  00AC               	movwf	___fldiv@b+2
  2498  03A8  3000               	movlw	0
  2499  03A9  00AB               	movwf	___fldiv@b+1
  2500  03AA  3000               	movlw	0
  2501  03AB  00AA               	movwf	___fldiv@b
  2502  03AC                     l1508:
  2503  03AC  01B7               	clrf	___fldiv@sign
  2504  03AD                     l743:
  2505  03AD  0020               	movlb	0	; select bank0
  2506  03AE  0838               	movf	___fldiv@new_exp,w
  2507  03AF  00AE               	movwf	??___fldiv
  2508  03B0  082E               	movf	??___fldiv,w
  2509  03B1  00BE               	movwf	___fldiv@bexp
  2510  03B2                     l1510:
  2511  03B2  1C3E               	btfss	___fldiv@bexp,0
  2512  03B3  2BB5               	goto	u1051
  2513  03B4  2BB6               	goto	u1050
  2514  03B5                     u1051:
  2515  03B5  2BB8               	goto	l1514
  2516  03B6                     u1050:
  2517  03B6                     l1512:
  2518  03B6  17AC               	bsf	___fldiv@b+2,7
  2519  03B7  2BBC               	goto	l745
  2520  03B8                     l1514:
  2521  03B8  307F               	movlw	127
  2522  03B9  00AE               	movwf	??___fldiv
  2523  03BA  082E               	movf	??___fldiv,w
  2524  03BB  05AC               	andwf	___fldiv@b+2,f
  2525  03BC                     l745:
  2526  03BC  363E               	lsrf	___fldiv@bexp,w
  2527  03BD  00AE               	movwf	??___fldiv
  2528  03BE  082E               	movf	??___fldiv,w
  2529  03BF  00AD               	movwf	___fldiv@b+3
  2530  03C0  0837               	movf	___fldiv@sign,w
  2531  03C1  00AE               	movwf	??___fldiv
  2532  03C2  082E               	movf	??___fldiv,w
  2533  03C3  04AD               	iorwf	___fldiv@b+3,f
  2534  03C4  2A81               	goto	l1424
  2535  03C5                     l723:
  2536  03C5  0008               	return
  2537  03C6                     __end_of___fldiv:
  2538                           
  2539                           	psect	text4
  2540  04FE                     __ptext4:	
  2541 ;; *************** function _TMR1_Init *****************
  2542 ;; Defined at:
  2543 ;;		line 489 in file "OpticalSpeedSensor.c"
  2544 ;; Parameters:    Size  Location     Type
  2545 ;;		None
  2546 ;; Auto vars:     Size  Location     Type
  2547 ;;		None
  2548 ;; Return value:  Size  Location     Type
  2549 ;;                  1    wreg      void 
  2550 ;; Registers used:
  2551 ;;		wreg, status,2, status,0
  2552 ;; Tracked objects:
  2553 ;;		On entry : 0/0
  2554 ;;		On exit  : 0/0
  2555 ;;		Unchanged: 0/0
  2556 ;; Data sizes:     COMMON   BANK0   BANK1   BANK2   BANK3   BANK4   BANK5   BANK6   BANK7   BANK8   BANK9  BANK10  BANK1
      +1  BANK12
  2557 ;;      Params:         0       0       0       0       0       0       0       0       0       0       0       0       
      +0       0
  2558 ;;      Locals:         0       0       0       0       0       0       0       0       0       0       0       0       
      +0       0
  2559 ;;      Temps:          0       0       0       0       0       0       0       0       0       0       0       0       
      +0       0
  2560 ;;      Totals:         0       0       0       0       0       0       0       0       0       0       0       0       
      +0       0
  2561 ;;Total ram usage:        0 bytes
  2562 ;; Hardware stack levels used:    1
  2563 ;; Hardware stack levels required when called:    1
  2564 ;; This function calls:
  2565 ;;		Nothing
  2566 ;; This function is called by:
  2567 ;;		_main
  2568 ;; This function uses a non-reentrant model
  2569 ;;
  2570                           
  2571                           
  2572                           ;psect for function _TMR1_Init
  2573  04FE                     _TMR1_Init:
  2574  04FE                     l1342:	
  2575                           ;incstack = 0
  2576                           ; Regs used in _TMR1_Init: [wreg+status,2+status,0]
  2577                           
  2578                           
  2579                           ;OpticalSpeedSensor.c: 494:     T1CONbits.TMR1CS = 0;
  2580  04FE  303F               	movlw	-193
  2581  04FF  0020               	movlb	0	; select bank0
  2582  0500  0598               	andwf	24,f	;volatile
  2583                           
  2584                           ;OpticalSpeedSensor.c: 495:     T1CONbits.T1CKPS = 2;
  2585  0501  0818               	movf	24,w	;volatile
  2586  0502  39CF               	andlw	-49
  2587  0503  3820               	iorlw	32
  2588  0504  0098               	movwf	24	;volatile
  2589  0505                     l1344:
  2590                           
  2591                           ;OpticalSpeedSensor.c: 496:     T1CONbits.T1OSCEN = 0;
  2592  0505  1198               	bcf	24,3	;volatile
  2593  0506                     l1346:
  2594                           
  2595                           ;OpticalSpeedSensor.c: 497:     T1CONbits.nT1SYNC = 1;
  2596  0506  1518               	bsf	24,2	;volatile
  2597  0507                     l1348:
  2598                           
  2599                           ;OpticalSpeedSensor.c: 498:     T1CONbits.TMR1ON = 1;
  2600  0507  1418               	bsf	24,0	;volatile
  2601  0508                     l1350:
  2602                           
  2603                           ;OpticalSpeedSensor.c: 501:     T1GCON = 0;
  2604  0508  0199               	clrf	25	;volatile
  2605  0509                     l1352:
  2606                           
  2607                           ;OpticalSpeedSensor.c: 519:     PIR1bits.TMR1IF = 0;
  2608  0509  1011               	bcf	17,0	;volatile
  2609  050A                     l160:
  2610  050A  0008               	return
  2611  050B                     __end_of_TMR1_Init:
  2612                           
  2613                           	psect	text5
  2614  0511                     __ptext5:	
  2615 ;; *************** function _Enable_Timer1_Int *****************
  2616 ;; Defined at:
  2617 ;;		line 739 in file "OpticalSpeedSensor.c"
  2618 ;; Parameters:    Size  Location     Type
  2619 ;;		None
  2620 ;; Auto vars:     Size  Location     Type
  2621 ;;		None
  2622 ;; Return value:  Size  Location     Type
  2623 ;;                  1    wreg      void 
  2624 ;; Registers used:
  2625 ;;		None
  2626 ;; Tracked objects:
  2627 ;;		On entry : 0/0
  2628 ;;		On exit  : 0/0
  2629 ;;		Unchanged: 0/0
  2630 ;; Data sizes:     COMMON   BANK0   BANK1   BANK2   BANK3   BANK4   BANK5   BANK6   BANK7   BANK8   BANK9  BANK10  BANK1
      +1  BANK12
  2631 ;;      Params:         0       0       0       0       0       0       0       0       0       0       0       0       
      +0       0
  2632 ;;      Locals:         0       0       0       0       0       0       0       0       0       0       0       0       
      +0       0
  2633 ;;      Temps:          0       0       0       0       0       0       0       0       0       0       0       0       
      +0       0
  2634 ;;      Totals:         0       0       0       0       0       0       0       0       0       0       0       0       
      +0       0
  2635 ;;Total ram usage:        0 bytes
  2636 ;; Hardware stack levels used:    1
  2637 ;; Hardware stack levels required when called:    1
  2638 ;; This function calls:
  2639 ;;		Nothing
  2640 ;; This function is called by:
  2641 ;;		_main
  2642 ;; This function uses a non-reentrant model
  2643 ;;
  2644                           
  2645                           
  2646                           ;psect for function _Enable_Timer1_Int
  2647  0511                     _Enable_Timer1_Int:
  2648  0511                     l1356:	
  2649                           ;incstack = 0
  2650                           ; Regs used in _Enable_Timer1_Int: []
  2651                           
  2652                           
  2653                           ;OpticalSpeedSensor.c: 741:     PIR1bits.TMR1IF = 0;
  2654  0511  0020               	movlb	0	; select bank0
  2655  0512  1011               	bcf	17,0	;volatile
  2656                           
  2657                           ;OpticalSpeedSensor.c: 742:     PIE1bits.TMR1IE = 1;
  2658  0513  0021               	movlb	1	; select bank1
  2659  0514  1411               	bsf	17,0	;volatile
  2660  0515                     l194:
  2661  0515  0008               	return
  2662  0516                     __end_of_Enable_Timer1_Int:
  2663                           
  2664                           	psect	text6
  2665  051B                     __ptext6:	
  2666 ;; *************** function _Enable_Int *****************
  2667 ;; Defined at:
  2668 ;;		line 727 in file "OpticalSpeedSensor.c"
  2669 ;; Parameters:    Size  Location     Type
  2670 ;;		None
  2671 ;; Auto vars:     Size  Location     Type
  2672 ;;		None
  2673 ;; Return value:  Size  Location     Type
  2674 ;;                  1    wreg      void 
  2675 ;; Registers used:
  2676 ;;		None
  2677 ;; Tracked objects:
  2678 ;;		On entry : 0/0
  2679 ;;		On exit  : 0/0
  2680 ;;		Unchanged: 0/0
  2681 ;; Data sizes:     COMMON   BANK0   BANK1   BANK2   BANK3   BANK4   BANK5   BANK6   BANK7   BANK8   BANK9  BANK10  BANK1
      +1  BANK12
  2682 ;;      Params:         0       0       0       0       0       0       0       0       0       0       0       0       
      +0       0
  2683 ;;      Locals:         0       0       0       0       0       0       0       0       0       0       0       0       
      +0       0
  2684 ;;      Temps:          0       0       0       0       0       0       0       0       0       0       0       0       
      +0       0
  2685 ;;      Totals:         0       0       0       0       0       0       0       0       0       0       0       0       
      +0       0
  2686 ;;Total ram usage:        0 bytes
  2687 ;; Hardware stack levels used:    1
  2688 ;; Hardware stack levels required when called:    1
  2689 ;; This function calls:
  2690 ;;		Nothing
  2691 ;; This function is called by:
  2692 ;;		_main
  2693 ;; This function uses a non-reentrant model
  2694 ;;
  2695                           
  2696                           
  2697                           ;psect for function _Enable_Int
  2698  051B                     _Enable_Int:
  2699  051B                     l1354:	
  2700                           ;incstack = 0
  2701                           ; Regs used in _Enable_Int: []
  2702                           
  2703                           
  2704                           ;OpticalSpeedSensor.c: 729:     INTCONbits.GIE = 1;
  2705  051B  178B               	bsf	11,7	;volatile
  2706                           
  2707                           ;OpticalSpeedSensor.c: 730:     INTCONbits.PEIE = 1;
  2708  051C  170B               	bsf	11,6	;volatile
  2709  051D                     l188:
  2710  051D  0008               	return
  2711  051E                     __end_of_Enable_Int:
  2712                           
  2713                           	psect	text7
  2714  0516                     __ptext7:	
  2715 ;; *************** function _Enable_External_Rising_Int *****************
  2716 ;; Defined at:
  2717 ;;		line 751 in file "OpticalSpeedSensor.c"
  2718 ;; Parameters:    Size  Location     Type
  2719 ;;		None
  2720 ;; Auto vars:     Size  Location     Type
  2721 ;;		None
  2722 ;; Return value:  Size  Location     Type
  2723 ;;                  1    wreg      void 
  2724 ;; Registers used:
  2725 ;;		None
  2726 ;; Tracked objects:
  2727 ;;		On entry : 0/0
  2728 ;;		On exit  : 0/0
  2729 ;;		Unchanged: 0/0
  2730 ;; Data sizes:     COMMON   BANK0   BANK1   BANK2   BANK3   BANK4   BANK5   BANK6   BANK7   BANK8   BANK9  BANK10  BANK1
      +1  BANK12
  2731 ;;      Params:         0       0       0       0       0       0       0       0       0       0       0       0       
      +0       0
  2732 ;;      Locals:         0       0       0       0       0       0       0       0       0       0       0       0       
      +0       0
  2733 ;;      Temps:          0       0       0       0       0       0       0       0       0       0       0       0       
      +0       0
  2734 ;;      Totals:         0       0       0       0       0       0       0       0       0       0       0       0       
      +0       0
  2735 ;;Total ram usage:        0 bytes
  2736 ;; Hardware stack levels used:    1
  2737 ;; Hardware stack levels required when called:    1
  2738 ;; This function calls:
  2739 ;;		Nothing
  2740 ;; This function is called by:
  2741 ;;		_main
  2742 ;; This function uses a non-reentrant model
  2743 ;;
  2744                           
  2745                           
  2746                           ;psect for function _Enable_External_Rising_Int
  2747  0516                     _Enable_External_Rising_Int:
  2748  0516                     l1358:	
  2749                           ;incstack = 0
  2750                           ; Regs used in _Enable_External_Rising_Int: []
  2751                           
  2752                           
  2753                           ;OpticalSpeedSensor.c: 753:     OPTION_REGbits.INTEDG = 1;
  2754  0516  0021               	movlb	1	; select bank1
  2755  0517  1715               	bsf	21,6	;volatile
  2756                           
  2757                           ;OpticalSpeedSensor.c: 754:     INTCONbits.INTF = 0;
  2758  0518  108B               	bcf	11,1	;volatile
  2759                           
  2760                           ;OpticalSpeedSensor.c: 755:     INTCONbits.INTE = 1;
  2761  0519  160B               	bsf	11,4	;volatile
  2762  051A                     l200:
  2763  051A  0008               	return
  2764  051B                     __end_of_Enable_External_Rising_Int:
  2765                           
  2766                           	psect	intentry
  2767  0004                     __pintentry:	
  2768 ;; *************** function _ISR_Routine *****************
  2769 ;; Defined at:
  2770 ;;		line 404 in file "OpticalSpeedSensor.c"
  2771 ;; Parameters:    Size  Location     Type
  2772 ;;		None
  2773 ;; Auto vars:     Size  Location     Type
  2774 ;;		None
  2775 ;; Return value:  Size  Location     Type
  2776 ;;                  1    wreg      void 
  2777 ;; Registers used:
  2778 ;;		wreg, status,2, status,0
  2779 ;; Tracked objects:
  2780 ;;		On entry : 0/0
  2781 ;;		On exit  : 0/0
  2782 ;;		Unchanged: 0/0
  2783 ;; Data sizes:     COMMON   BANK0   BANK1   BANK2   BANK3   BANK4   BANK5   BANK6   BANK7   BANK8   BANK9  BANK10  BANK1
      +1  BANK12
  2784 ;;      Params:         0       0       0       0       0       0       0       0       0       0       0       0       
      +0       0
  2785 ;;      Locals:         0       0       0       0       0       0       0       0       0       0       0       0       
      +0       0
  2786 ;;      Temps:          1       0       0       0       0       0       0       0       0       0       0       0       
      +0       0
  2787 ;;      Totals:         1       0       0       0       0       0       0       0       0       0       0       0       
      +0       0
  2788 ;;Total ram usage:        1 bytes
  2789 ;; Hardware stack levels used:    1
  2790 ;; This function calls:
  2791 ;;		Nothing
  2792 ;; This function is called by:
  2793 ;;		Interrupt level 1
  2794 ;; This function uses a non-reentrant model
  2795 ;;
  2796                           
  2797  0004                     _ISR_Routine:
  2798                           
  2799                           ;incstack = 0
  2800  0004  147E               	bsf	int$flags,0	;set compiler interrupt flag (level 1)
  2801                           
  2802                           ; Regs used in _ISR_Routine: [wreg+status,2+status,0]
  2803  0005  3180               	pagesel	$
  2804  0006                     i1l1750:
  2805  0006  0000               	nop	;# 
  2806                           
  2807                           ;OpticalSpeedSensor.c: 409:     if (PIR1bits.TMR1IF)
  2808  0007  0020               	movlb	0	; select bank0
  2809  0008  1C11               	btfss	17,0	;volatile
  2810  0009  280B               	goto	u135_21
  2811  000A  280C               	goto	u135_20
  2812  000B                     u135_21:
  2813  000B  2823               	goto	i1l1758
  2814  000C                     u135_20:
  2815  000C                     i1l1752:
  2816  000C  0000               	nop	;# 
  2817  000D                     i1l1754:
  2818                           
  2819                           ;OpticalSpeedSensor.c: 421:         TMR1H = 0xFC;
  2820  000D  30FC               	movlw	252
  2821  000E  0020               	movlb	0	; select bank0
  2822  000F  0097               	movwf	23	;volatile
  2823                           
  2824                           ;OpticalSpeedSensor.c: 422:         TMR1L = 0x18;
  2825  0010  3018               	movlw	24
  2826  0011  0096               	movwf	22	;volatile
  2827                           
  2828                           ;OpticalSpeedSensor.c: 434:         sGenTimer1++;
  2829  0012  3001               	movlw	1
  2830  0013  07D8               	addwf	_sGenTimer1,f
  2831  0014  3000               	movlw	0
  2832  0015  3DD9               	addwfc	_sGenTimer1+1,f
  2833  0016  3000               	movlw	0
  2834  0017  3DDA               	addwfc	_sGenTimer1+2,f
  2835  0018  3000               	movlw	0
  2836  0019  3DDB               	addwfc	_sGenTimer1+3,f
  2837                           
  2838                           ;OpticalSpeedSensor.c: 435:         sGenTimer2++;
  2839  001A  3001               	movlw	1
  2840  001B  07D4               	addwf	_sGenTimer2,f
  2841  001C  3000               	movlw	0
  2842  001D  3DD5               	addwfc	_sGenTimer2+1,f
  2843  001E  3000               	movlw	0
  2844  001F  3DD6               	addwfc	_sGenTimer2+2,f
  2845  0020  3000               	movlw	0
  2846  0021  3DD7               	addwfc	_sGenTimer2+3,f
  2847  0022                     i1l1756:
  2848                           
  2849                           ;OpticalSpeedSensor.c: 437:         PIR1bits.TMR1IF = 0;
  2850  0022  1011               	bcf	17,0	;volatile
  2851  0023                     i1l1758:
  2852                           
  2853                           ;OpticalSpeedSensor.c: 445:     if (INTCONbits.INTF)
  2854  0023  1C8B               	btfss	11,1	;volatile
  2855  0024  2826               	goto	u136_21
  2856  0025  2827               	goto	u136_20
  2857  0026                     u136_21:
  2858  0026  283A               	goto	i1l157
  2859  0027                     u136_20:
  2860  0027                     i1l1760:
  2861                           
  2862                           ;OpticalSpeedSensor.c: 446:     {;OpticalSpeedSensor.c: 449:         _delay((unsigned lo
      +                          ng)((10)*(16000000/4000.0)));
  2863  0027  3034               	movlw	52
  2864  0028  00F0               	movwf	??_ISR_Routine
  2865  0029  30F2               	movlw	242
  2866  002A                     u160_27:
  2867  002A  0B89               	decfsz	9,f
  2868  002B  282A               	goto	u160_27
  2869  002C  0BF0               	decfsz	??_ISR_Routine,f
  2870  002D  282A               	goto	u160_27
  2871  002E  0000               	nop	;# 
  2872  002F                     i1l1762:
  2873                           
  2874                           ;OpticalSpeedSensor.c: 454:         if(PORTAbits.RA2)
  2875  002F  0020               	movlb	0	; select bank0
  2876  0030  1D0C               	btfss	12,2	;volatile
  2877  0031  2833               	goto	u137_21
  2878  0032  2834               	goto	u137_20
  2879  0033                     u137_21:
  2880  0033  2839               	goto	i1l1768
  2881  0034                     u137_20:
  2882  0034                     i1l1764:
  2883                           
  2884                           ;OpticalSpeedSensor.c: 455:         {;OpticalSpeedSensor.c: 456:             bRisingEdge
      +                          s++;
  2885  0034  3001               	movlw	1
  2886  0035  00F0               	movwf	??_ISR_Routine
  2887  0036  0870               	movf	??_ISR_Routine,w
  2888  0037  07E5               	addwf	_bRisingEdges,f
  2889  0038                     i1l1766:
  2890                           
  2891                           ;OpticalSpeedSensor.c: 458:             ((bFlags_1) |= (0x08));
  2892  0038  15E4               	bsf	_bFlags_1,3
  2893  0039                     i1l1768:
  2894                           
  2895                           ;OpticalSpeedSensor.c: 468:         INTCONbits.INTF = 0;
  2896  0039  108B               	bcf	11,1	;volatile
  2897  003A                     i1l157:
  2898  003A  107E               	bcf	int$flags,0	;clear compiler interrupt flag (level 1)
  2899  003B  0009               	retfie
  2900  003C                     __end_of_ISR_Routine:
  2901  007E                     btemp	set	126	;btemp
  2902  007E                     int$flags	set	126
  2903  007E                     wtemp0	set	126
  2904                           
  2905                           	psect	config
  2906                           
  2907                           ;Config register CONFIG1 @ 0x8007
  2908                           ;	Oscillator Selection
  2909                           ;	FOSC = INTOSC, INTOSC oscillator: I/O function on CLKIN pin
  2910                           ;	Watchdog Timer Enable
  2911                           ;	WDTE = OFF, WDT disabled
  2912                           ;	Power-up Timer Enable
  2913                           ;	PWRTE = OFF, PWRT disabled
  2914                           ;	MCLR Pin Function Select
  2915                           ;	MCLRE = OFF, MCLR/VPP pin function is digital input
  2916                           ;	Flash Program Memory Code Protection
  2917                           ;	CP = OFF, Program memory code protection is disabled
  2918                           ;	Data Memory Code Protection
  2919                           ;	CPD = OFF, Data memory code protection is disabled
  2920                           ;	Brown-out Reset Enable
  2921                           ;	BOREN = OFF, Brown-out Reset disabled
  2922                           ;	Clock Out Enable
  2923                           ;	CLKOUTEN = OFF, CLKOUT function is disabled. I/O or oscillator function on the CLKOUT 
      +                          pin
  2924                           ;	Internal/External Switchover
  2925                           ;	IESO = OFF, Internal/External Switchover mode is disabled
  2926                           ;	Fail-Safe Clock Monitor Enable
  2927                           ;	FCMEN = OFF, Fail-Safe Clock Monitor is disabled
  2928  8007                     	org	32775
  2929  8007  09A4               	dw	2468
  2930                           
  2931                           ;Config register CONFIG2 @ 0x8008
  2932                           ;	Flash Memory Self-Write Protection
  2933                           ;	WRT = OFF, Write protection off
  2934                           ;	PLL Enable
  2935                           ;	PLLEN = OFF, 4x PLL disabled
  2936                           ;	Stack Overflow/Underflow Reset Enable
  2937                           ;	STVREN = ON, Stack Overflow or Underflow will cause a Reset
  2938                           ;	Brown-out Reset Voltage Selection
  2939                           ;	BORV = LO, Brown-out Reset Voltage (Vbor), low trip point selected.
  2940                           ;	Low-Voltage Programming Enable
  2941                           ;	LVP = OFF, High-voltage on MCLR/VPP must be used for programming
  2942  8008                     	org	32776
  2943  8008  1EFF               	dw	7935

Data Sizes:
    Strings     0
    Constant    0
    Data        0
    BSS         19
    Persistent  34
    Stack       0

Auto Spaces:
    Space          Size  Autos    Used
    COMMON           14      9      10
    BANK0            80     54      74
    BANK1            80      0       0
    BANK2            80      0       0
    BANK3            80      0       0
    BANK4            80      0       0
    BANK5            80      0       0
    BANK6            80      0       0
    BANK7            80      0       0
    BANK8            80      0       0
    BANK9            80      0       0
    BANK10           80      0       0
    BANK11           80      0       0
    BANK12           48      0       0

Pointer List with Targets:

    None.

Critical Paths under _main in COMMON

    _main->___xxtofl
    ___flge->___xxtofl
    ___fldiv->___xxtofl

Critical Paths under _ISR_Routine in COMMON

    None.

Critical Paths under _main in BANK0

    _main->___flge
    ___flge->___fldiv
    ___fldiv->___xxtofl

Critical Paths under _ISR_Routine in BANK0

    None.

Critical Paths under _main in BANK1

    None.

Critical Paths under _ISR_Routine in BANK1

    None.

Critical Paths under _main in BANK2

    None.

Critical Paths under _ISR_Routine in BANK2

    None.

Critical Paths under _main in BANK3

    None.

Critical Paths under _ISR_Routine in BANK3

    None.

Critical Paths under _main in BANK4

    None.

Critical Paths under _ISR_Routine in BANK4

    None.

Critical Paths under _main in BANK5

    None.

Critical Paths under _ISR_Routine in BANK5

    None.

Critical Paths under _main in BANK6

    None.

Critical Paths under _ISR_Routine in BANK6

    None.

Critical Paths under _main in BANK7

    None.

Critical Paths under _ISR_Routine in BANK7

    None.

Critical Paths under _main in BANK8

    None.

Critical Paths under _ISR_Routine in BANK8

    None.

Critical Paths under _main in BANK9

    None.

Critical Paths under _ISR_Routine in BANK9

    None.

Critical Paths under _main in BANK10

    None.

Critical Paths under _ISR_Routine in BANK10

    None.

Critical Paths under _main in BANK11

    None.

Critical Paths under _ISR_Routine in BANK11

    None.

Critical Paths under _main in BANK12

    None.

Critical Paths under _ISR_Routine in BANK12

    None.

Call Graph Tables:

 ---------------------------------------------------------------------------------
 (Depth) Function   	        Calls       Base Space   Used Autos Params    Refs
 ---------------------------------------------------------------------------------
 (0) _main                                                10    10      0    2447
                                             44 BANK0     10    10      0
         _Enable_External_Rising_Int
                         _Enable_Int
                  _Enable_Timer1_Int
                          _TMR1_Init
                            ___fldiv
                             ___flge
                           ___xxtofl
 ---------------------------------------------------------------------------------
 (1) ___xxtofl                                            14    10      4     474
                                              1 COMMON     8     4      4
                                              0 BANK0      6     6      0
 ---------------------------------------------------------------------------------
 (1) ___flge                                              12     4      8     446
                                             32 BANK0     12     4      8
                            ___fldiv (ARG)
                           ___xxtofl (ARG)
 ---------------------------------------------------------------------------------
 (1) ___fldiv                                             26    18      8    1425
                                              6 BANK0     26    18      8
                           ___xxtofl (ARG)
 ---------------------------------------------------------------------------------
 (1) _TMR1_Init                                            0     0      0       0
 ---------------------------------------------------------------------------------
 (1) _Enable_Timer1_Int                                    0     0      0       0
 ---------------------------------------------------------------------------------
 (1) _Enable_Int                                           0     0      0       0
 ---------------------------------------------------------------------------------
 (1) _Enable_External_Rising_Int                           0     0      0       0
 ---------------------------------------------------------------------------------
 Estimated maximum stack depth 1
 ---------------------------------------------------------------------------------
 (Depth) Function   	        Calls       Base Space   Used Autos Params    Refs
 ---------------------------------------------------------------------------------
 (2) _ISR_Routine                                          1     1      0       0
                                              0 COMMON     1     1      0
 ---------------------------------------------------------------------------------
 Estimated maximum stack depth 2
 ---------------------------------------------------------------------------------

 Call Graph Graphs:

 _main (ROOT)
   _Enable_External_Rising_Int
   _Enable_Int
   _Enable_Timer1_Int
   _TMR1_Init
   ___fldiv
     ___xxtofl (ARG)
   ___flge
     ___fldiv (ARG)
       ___xxtofl (ARG)
     ___xxtofl (ARG)
   ___xxtofl

 _ISR_Routine (ROOT)

 Address spaces:
Name               Size   Autos  Total    Cost      Usage
BIGRAM             3F0      0       0       0        0.0%
EEDATA             100      0       0       0        0.0%
NULL                 0      0       0       0        0.0%
CODE                 0      0       0       0        0.0%
BITCOMMON            E      0       0       1        0.0%
BITSFR0              0      0       0       1        0.0%
SFR0                 0      0       0       1        0.0%
COMMON               E      9       A       2       71.4%
BITSFR1              0      0       0       2        0.0%
SFR1                 0      0       0       2        0.0%
BITSFR2              0      0       0       3        0.0%
SFR2                 0      0       0       3        0.0%
STACK                0      0       0       3        0.0%
BITBANK0            50      0       0       4        0.0%
BITSFR3              0      0       0       4        0.0%
SFR3                 0      0       0       4        0.0%
BANK0               50     36      4A       5       92.5%
BITSFR4              0      0       0       5        0.0%
SFR4                 0      0       0       5        0.0%
BITBANK1            50      0       0       6        0.0%
BITSFR5              0      0       0       6        0.0%
SFR5                 0      0       0       6        0.0%
BANK1               50      0       0       7        0.0%
BITSFR6              0      0       0       7        0.0%
SFR6                 0      0       0       7        0.0%
BITBANK2            50      0       0       8        0.0%
BITSFR7              0      0       0       8        0.0%
SFR7                 0      0       0       8        0.0%
BANK2               50      0       0       9        0.0%
BITSFR8              0      0       0       9        0.0%
SFR8                 0      0       0       9        0.0%
BITBANK3            50      0       0      10        0.0%
BITSFR9              0      0       0      10        0.0%
SFR9                 0      0       0      10        0.0%
BANK3               50      0       0      11        0.0%
BITSFR10             0      0       0      11        0.0%
SFR10                0      0       0      11        0.0%
BITBANK4            50      0       0      12        0.0%
BITSFR11             0      0       0      12        0.0%
SFR11                0      0       0      12        0.0%
BANK4               50      0       0      13        0.0%
BITSFR12             0      0       0      13        0.0%
SFR12                0      0       0      13        0.0%
BITBANK5            50      0       0      14        0.0%
BITSFR13             0      0       0      14        0.0%
SFR13                0      0       0      14        0.0%
BANK5               50      0       0      15        0.0%
BITSFR14             0      0       0      15        0.0%
SFR14                0      0       0      15        0.0%
BITBANK6            50      0       0      16        0.0%
BITSFR15             0      0       0      16        0.0%
SFR15                0      0       0      16        0.0%
BANK6               50      0       0      17        0.0%
BITSFR16             0      0       0      17        0.0%
SFR16                0      0       0      17        0.0%
BITBANK7            50      0       0      18        0.0%
BITSFR17             0      0       0      18        0.0%
SFR17                0      0       0      18        0.0%
BANK7               50      0       0      19        0.0%
BITSFR18             0      0       0      19        0.0%
SFR18                0      0       0      19        0.0%
BITSFR19             0      0       0      20        0.0%
SFR19                0      0       0      20        0.0%
ABS                  0      0      54      20        0.0%
BITBANK8            50      0       0      21        0.0%
BITSFR20             0      0       0      21        0.0%
SFR20                0      0       0      21        0.0%
BANK8               50      0       0      22        0.0%
BITSFR21             0      0       0      22        0.0%
SFR21                0      0       0      22        0.0%
BITBANK9            50      0       0      23        0.0%
BITSFR22             0      0       0      23        0.0%
SFR22                0      0       0      23        0.0%
BANK9               50      0       0      24        0.0%
BITSFR23             0      0       0      24        0.0%
SFR23                0      0       0      24        0.0%
BITBANK10           50      0       0      25        0.0%
BITSFR24             0      0       0      25        0.0%
SFR24                0      0       0      25        0.0%
BANK10              50      0       0      26        0.0%
BITSFR25             0      0       0      26        0.0%
SFR25                0      0       0      26        0.0%
BITBANK11           50      0       0      27        0.0%
BITSFR26             0      0       0      27        0.0%
SFR26                0      0       0      27        0.0%
BANK11              50      0       0      28        0.0%
BITSFR27             0      0       0      28        0.0%
SFR27                0      0       0      28        0.0%
BITBANK12           30      0       0      29        0.0%
BITSFR28             0      0       0      29        0.0%
SFR28                0      0       0      29        0.0%
BANK12              30      0       0      30        0.0%
BITSFR29             0      0       0      30        0.0%
SFR29                0      0       0      30        0.0%
BITSFR30             0      0       0      31        0.0%
SFR30                0      0       0      31        0.0%
DATA                 0      0      54      31        0.0%
BITSFR31             0      0       0      32        0.0%
SFR31                0      0       0      32        0.0%


Microchip Technology PIC Macro Assembler V2.20 build 20200408173844 
Symbol Table                                                                                   Tue Jun 15 11:03:46 2021

                       ___fldiv@aexp 003F                         ___fldiv@bexp 003E  
                       ___fldiv@sign 0037                                  l110 009F  
                                l200 051A                                  l112 00A1  
                                l113 00AC                                  l131 01B7  
                                l132 01BF                                  l124 011A  
                                l117 00CA                                  l109 009F  
                                l134 01CC                                  l135 01D4  
                                l119 00EB                                  l160 050A  
                                l128 019F                                  l137 01E1  
                                l138 01E9                                  l194 0515  
                                l188 051D                                  l550 04FD  
                                l542 0490                                  l721 0269  
                                l545 04E4                                  l723 03C5  
                                l811 0424                                  l805 03E9  
                                l742 0393                                  l743 03AD  
                                l807 0472                                  l745 03BC  
                                l737 0347                                  l818 043E  
                                l819 044A                                  u800 024B  
                                u801 024A                                  u810 0251  
                                u811 0250                                  u900 02F3  
                                u820 0256                                  u901 02F2  
                                u821 0255                                  u910 0306  
                                u830 0271                                  u911 0305  
                                u831 0270                                  u920 030E  
                                u840 028F                                  u921 030D  
                                u905 02EF                                  u841 028E  
                                u850 02C7                                  u770 0220  
                                u851 02C6                                  u771 021F  
                                u940 031B                                  u780 0226  
                                u941 031A                                  u781 0225  
                                u790 022B                                  u935 0311  
                                u791 022A                                  u960 032B  
                                u880 02D9                                  u961 032A  
                                u881 02D8                                  u865 02C8  
                                u970 0330                                  u971 032F  
                                u955 031D                                  u875 02CF  
                                u980 0344                                  u981 0343  
                                u990 034B                                  u991 034A  
                                u895 02DB                                  wreg 0009  
                      _trigStatDebug 005C                                 l2000 01EE  
                               l2014 01EE                                 l1400 023E  
                               l1410 0251                                 l1402 0243  
                               l2018 01F3                                 l1500 0379  
                               l1420 0271                                 l1412 0256  
                               l1404 0247                                 l1350 0508  
                               l1342 04FE                                 l1510 03B2  
                               l1502 0386                                 l1430 028F  
                               l1422 027D                                 l1414 025E  
                               l1406 024B                                 l1352 0509  
                               l1344 0505                                 l1512 03B6  
                               l1504 03A1                                 l1440 02B8  
                               l1424 0281                                 l1416 025F  
                               l1408 024C                                 l1520 03C8  
                               l2056 01F9                                 l1354 051B  
                               l1346 0506                                 l1514 03B8  
                               l1506 03A4                                 l1450 02D9  
                               l1442 02C0                                 l1434 0298  
                               l1418 0261                                 l1522 03CD  
                               l1356 0511                                 l1348 0507  
                               l1508 03AC                                 l1460 02FC  
                               l1452 02DA                                 l1444 02C2  
                               l1436 02A8                                 l1428 028A  
                               l1380 0212                                 l1540 0415  
                               l1532 03FA                                 l1524 03D1  
                               l1358 0516                                 l1470 0317  
                               l1446 02C7                                 l1454 02E1  
                               l1462 0300                                 l1438 02B0  
                               l1390 0226                                 l1382 0218  
                               l1550 0442                                 l1542 041D  
                               l1534 03FF                                 l1526 03E1  
                               l1480 032B                                 l1472 031B  
                               l1464 0306                                 l1456 02F3  
                               l1448 02D5                                 l1392 022B  
                               l1384 021C                                 l1560 046A  
                               l1552 044C                                 l1544 042B  
                               l1536 040A                                 l1528 03F1  
                               l1490 034C                                 l1482 032C  
                               l1474 031C                                 l1466 030E  
                               l1458 02F4                                 l1394 0233  
                               l1386 0220                                 l1554 0460  
                               l1546 0434                                 l1538 0411  
                               l1492 0351                                 l1484 0330  
                               l1476 0323                                 l1468 0310  
                               l1396 0234                                 l1388 0221  
                               l1820 0473                                 l1556 0465  
                               l1548 0438                                 l1900 0082  
                               l1494 0359                                 l1486 0344  
                               l1478 0327                                 l1398 0236  
                               l1830 04C8                                 l1822 0488  
                               l1558 0469                                 l1910 008A  
                               l1902 0083                                 l1496 035D  
                               l1832 04CC                                 l1824 04A4  
                               l1920 009B                                 l1912 008D  
                               l1904 0085                                 l1840 004B  
                               l1498 0375                                 l1834 04FA  
                               l1826 04AC                                 l1930 00B1  
                               l1922 009D                                 l1914 0090  
                               l1906 0087                                 l1850 0057  
                               l1842 004D                                 l1836 04FC  
                               l1828 04B0                                 l1940 00D0  
                               l1932 00B3                                 l1924 00A5  
                               l1916 0093                                 l1908 0089  
                               l1860 005F                                 l1852 0058  
                               l1844 0053                                 l1950 00E2  
                               l1942 00D5                                 l1934 00B8  
                               l1926 00A7                                 l1918 0096  
                               l1870 0067                                 l1862 0061  
                               l1854 0059                                 l1846 0054  
                               l1960 00FA                                 l1952 00E6  
                               l1944 00D7                                 l1936 00C1  
                               l1928 00B0                                 l1880 0070  
                               l1872 0069                                 l1864 0063  
                               l1856 005B                                 l1848 0056  
                               l1970 0125                                 l1962 0103  
                               l1954 00EF                                 l1946 00D9  
                               l1938 00CE                                 l1890 0078  
                               l1882 0071                                 l1874 006B  
                               l1866 0065                                 l1858 005D  
                               l1980 01A5                                 l1972 014E  
                               l1964 0111                                 l1956 00F1  
                               l1948 00DA                                 l1892 007A  
                               l1884 0072                                 l1876 006D  
                               l1868 0066                                 l1990 01D0  
                               l1982 01AA                                 l1974 018B  
                               l1966 011E                                 l1958 00F6  
                               l1894 007C                                 l1886 0074  
                               l1878 006F                                 l1992 01D8  
                               l1984 01AE                                 l1976 0195  
                               l1968 0120                                 l1896 007E  
                               l1888 0076                                 l1994 01E5  
                               l1986 01BB                                 l1978 01A3  
                               l1898 0080                                 l1996 01EA  
                               l1988 01C3                                 l1998 01EE  
                               u1000 0351                                 u1001 0350  
                               u1010 035D                                 u1011 035C  
                               u1020 036B                                 u1100 0410  
                               u1101 040F                                 u1030 0386  
                               u1031 0385                                 u1040 03A1  
                               u1120 042A                                 u1041 03A0  
                               u1025 0367                                 u1121 0429  
                               u1050 03B6                                 u1051 03B5  
                               u1035 0382                                 u1115 041E  
                               u1140 0438                                 u1060 03CD  
                               u1045 039D                                 u1141 0437  
                               u1061 03CC                                 u1150 043E  
                               u1070 03D1                                 u1151 043D  
                               u1135 042E                                 u1071 03D0  
                               u1400 0488                                 u1160 0442  
                               u1080 03F1                                 u1401 0487  
                               u1161 0441                                 u1081 03F0  
                               u1410 04A4                                 u1170 0456  
                               u1411 04A3                                 u1420 04B0  
                               u1180 0465                                 u1500 0111  
                               u1421 04AF                                 u1181 0464  
                               u1501 0110                                 u1430 04CC  
                               u1190 0469                                 u1510 011E  
                               u1431 04CB                                 u1191 0468  
                               u1175 0452                                 u1095 0404  
                               u1511 011D                                 u1440 04FA  
                               u1520 018B                                 u1441 04F9  
                               u1521 018A                                 u1530 01A3  
                               u1450 00A5                                 u1531 01A2  
                               u1451 00A4                                 u1540 01AE  
                               u1460 00B8                                 u1445 04F6  
                               u1541 01AD                                 u1461 00B7  
                               u1550 01BB                                 u1470 00CE  
                               u1551 01BA                                 u1471 00CD  
                               u1560 01C3                                 u1480 00EF  
                               u1561 01C2                                 u1481 00EE  
                               u1570 01D0                                 u1490 00FA  
                               u1571 01CF                                 u1491 00F9  
                               u1580 01D8                                 u1581 01D7  
                               u1590 01E5                                 u1591 01E4  
                               _WPUA 020C                                 _WPUC 020E  
                               _main 004B                                 fsr0h 0005  
                               indf0 0000                                 fsr0l 0004  
                               btemp 007E                                 start 003C  
                    ___fldiv@new_exp 0038                           _Enable_Int 051B  
                              ?_main 0070                      __end_of___fldiv 03C6  
                              i1l157 003A                                _RCREG 0199  
                              _RCSTA 019D                                _TMR1H 0017  
                              _TMR1L 0016                                _TXREG 019A  
                              _TXSTA 019E                   __size_of_TMR1_Init 000D  
                              status 0003                                wtemp0 007E  
       ??_Enable_External_Rising_Int 0071                      __initialization 003E  
                       __end_of_main 0212                               ??_main 004C  
                             _ADRESH 009C                         ?_ISR_Routine 0070  
                             _ADRESL 009B                               _T1GCON 0019  
                             i1l1750 0006                               i1l1760 0027  
                             i1l1752 000C                               i1l1762 002F  
                             i1l1754 000D                               i1l1764 0034  
                             i1l1756 0022                               i1l1766 0038  
                             i1l1758 0023                               i1l1768 0039  
                             u135_20 000C                               u135_21 000B  
                             u136_20 0027                               u136_21 0026  
                             u160_27 002A                               u137_20 0034  
                             u137_21 0033                               _SPBRGH 019C  
                             _SPBRGL 019B                     __end_of___xxtofl 0473  
                             ___flge 0473                    __end_of_TMR1_Init 050B  
                          ??___fldiv 002E                          ?_Enable_Int 0070  
                         ___flge@ff1 0040                           ___flge@ff2 0044  
                       ___xxtofl@arg 0022                         ___xxtofl@exp 0021  
                       ___xxtofl@val 0071              __end_of__initialization 0047  
                     __pcstackCOMMON 0070                       _OPTION_REGbits 0095  
                         _sGenTimer1 0058                           _sGenTimer2 0054  
                         __pbssBANK0 0054                  __size_of_Enable_Int 0003  
 __end_of_Enable_External_Rising_Int 051B           _Enable_External_Rising_Int 0516  
                         __pmaintext 004B                              ?___flge 0040  
                         _sLastState 0060                           __pintentry 0004  
                            _DACCON0 0118                              _BAUDCON 019F  
                          ?___xxtofl 0071                              _bADCLow 0062  
               __size_of_ISR_Routine 0038                      __size_of___flge 008B  
                            ___fldiv 0212                              __ptext1 03C6  
                            __ptext2 0473                              __ptext3 0212  
                            __ptext4 04FE                              __ptext5 0511  
                            __ptext6 051B                              __ptext7 0516  
                          _T1CONbits 0018                           ??___xxtofl 0075  
                            clrloop0 050C                 end_of_initialization 0047  
                          _RCSTAbits 019D                         ??_Enable_Int 0071  
                          _TMR1_Init 04FE                            _PORTAbits 000C  
                          _PORTCbits 000E                        ___xxtofl@sign 0020  
                          _TRISAbits 008C                            _TRISCbits 008E  
                        ___fldiv@grs 003A                          ___fldiv@rem 0033  
                 __end_of_Enable_Int 051E                            _TXSTAbits 019E  
                     __end_of___flge 04FE                           ?_TMR1_Init 0070  
                start_initialization 003E          ?_Enable_External_Rising_Int 0070  
                           ??___flge 0048                            ___fldiv@a 0026  
                          ___fldiv@b 002A                          __pbssCOMMON 0079  
                          ___latbits 0002                        __pcstackBANK0 0020  
                  __size_of___xxtofl 00AD                    _Enable_Timer1_Int 0511  
                          __pnvBANK0 0066                   ?_Enable_Timer1_Int 0070  
                           ?___fldiv 0026                  ??_Enable_Timer1_Int 0071  
                        ??_TMR1_Init 0071                        ??_ISR_Routine 0070  
          __end_of_Enable_Timer1_Int 0516                             _LATAbits 010C  
                           _LATCbits 010E                            clear_ram0 050B  
                           _PIE1bits 0091                             _PIR1bits 0011  
                           _SSP1CON1 0215                             _SSP1STAT 0214  
                         _ADCON0bits 009D                           _ADCON1bits 009E  
                           _bADCHigh 0063  __size_of_Enable_External_Rising_Int 0005  
                      _sCurrentState 0066                  __end_of_ISR_Routine 003C  
                           _bFlags_1 0064                             _bFlags_2 0079  
                   __size_of___fldiv 01B4                           _ANSELAbits 018C  
                         _ANSELCbits 018E                             ___xxtofl 03C6  
         __size_of_Enable_Timer1_Int 0005                        __size_of_main 01C7  
                           int$flags 007E                  main@sGenTimer1InSec 0050  
                         _INTCONbits 000B                          _ISR_Routine 0004  
                           intlevel1 0000                           _OSCCONbits 0099  
                       _bRisingEdges 0065                      _swCurrentADCVal 005E  
